(iblox
Model
p0
(dp1
S'deterministic'
p2
I00
sS'curr'
p3
(dp4
I0
(lp5
I0
aI4
aI1
aI1
aS'wall'
p6
aS'square'
p7
aS'no'
p8
asI1
(lp9
I1
aI4
aI1
aI1
ag6
ag7
ag8
asI2
(lp10
I2
aI4
aI1
aI1
ag6
ag7
ag8
asI3
(lp11
I3
aI4
aI1
aI1
ag6
ag7
ag8
asI4
(lp12
I4
aI4
aI1
aI1
ag6
ag7
ag8
asI5
(lp13
I0
aI3
aI1
aI1
ag6
ag7
ag8
asI6
(lp14
I4
aI3
aI1
aI1
ag6
ag7
ag8
asI7
(lp15
I0
aI2
aI1
aI1
ag6
ag7
ag8
asI8
(lp16
I3
aI2
aI1
aI1
ag6
ag7
ag8
asI9
(lp17
I4
aI2
aI1
aI1
ag6
ag7
ag8
asI10
(lp18
I0
aI1
aI1
aI1
ag6
ag7
ag8
asI11
(lp19
I4
aI1
aI1
aI1
ag6
ag7
ag8
asI12
(lp20
I0
aI0
aI1
aI1
ag6
ag7
ag8
asI13
(lp21
I1
aI0
aI1
aI1
ag6
ag7
ag8
asI14
(lp22
I2
aI0
aI1
aI1
ag6
ag7
ag8
asI15
(lp23
I3
aI0
aI1
aI1
ag6
ag7
ag8
asI16
(lp24
I4
aI0
aI1
aI1
ag6
ag7
ag8
asI17
(lp25
I1
aI1
aI1
aI1
aS'hole'
p26
ag7
ag8
asI18
(lp27
I3
aI1
aI1
aI1
aS'goal'
p28
ag7
ag8
asI19
(lp29
I1
aI3
aI1
aI1
aS'agent'
p30
ag7
ag8
assS'num_schemas'
p31
I0
sS'evidence'
p32
(lp33
(dp34
S'right'
p35
(lp36
sS'left'
p37
(lp38
sS'centre'
p39
(lp40
sa(dp41
S'below'
p42
(lp43
sS'above'
p44
(lp45
sg39
(lp46
sa(dp47
I1
(lp48
sa(dp49
I1
(lp50
sa(dp51
g6
(lp52
sg26
(lp53
sg28
(lp54
sg30
(lp55
sa(dp56
g7
(lp57
sa(dp58
S'yes'
p59
(lp60
sg8
(lp61
sa(dp62
asS'xMax'
p63
I4
sS'obsColours'
p64
(lp65
(lp66
g6
ag26
ag28
ag30
aa(lp67
(lp68
F0.0
aF0.0
aF0.0
aF1.0
aa(lp69
F0.0
aF0.0
aF1.0
aF0.0
aa(lp70
F0.0
aF1.0
aF0.0
aF0.0
aa(lp71
F1.0
aF0.0
aF0.0
aF0.0
aaasS'obsYpos'
p72
(lp73
(lp74
g42
ag39
ag44
aa(lp75
(lp76
I1
aI0
aI0
aa(lp77
I0
aI1
aI0
aa(lp78
I0
aI0
aI1
aaasS'obsShapes'
p79
(lp80
(lp81
g7
aa(lp82
(lp83
F1.0
aaasS'schemas'
p84
(lp85
(dp86
g35
(lp87
sg37
(lp88
sg39
(lp89
sa(dp90
g42
(lp91
sg44
(lp92
sg39
(lp93
sa(dp94
I1
(lp95
sa(dp96
I1
(lp97
sa(dp98
g6
(lp99
sg26
(lp100
sg28
(lp101
sg30
(lp102
sa(dp103
g7
(lp104
sa(dp105
g59
(lp106
sg8
(lp107
sa(dp108
asS'obsTrans'
p109
(dp110
sS'obsChanges'
p111
c__builtin__
set
p112
((lp113
tp114
Rp115
sS'data'
p116
(lp117
(dp118
g35
(lp119
sg37
(lp120
sg39
(lp121
sa(dp122
g42
(lp123
sg44
(lp124
sg39
(lp125
sa(dp126
I1
(lp127
sa(dp128
I1
(lp129
sa(dp130
g6
(lp131
sg26
(lp132
sg28
(lp133
sg30
(lp134
sa(dp135
g7
(lp136
sa(dp137
g59
(lp138
sg8
(lp139
sa(dp140
asS'num_objects'
p141
I20
sS'obsNothing'
p142
(lp143
(lp144
g59
ag8
aa(lp145
(lp146
I1
aI0
aa(lp147
I0
aI1
aaasS'obsXsizes'
p148
(lp149
(lp150
I1
aa(lp151
(lp152
F1.0
aaasS'obsXpos'
p153
(lp154
(lp155
g37
ag39
ag35
aa(lp156
(lp157
I1
aI0
aI0
aa(lp158
I0
aI1
aI0
aa(lp159
I0
aI0
aI1
aaasS'observations'
p160
(lp161
g154
ag73
ag149
a(lp162
(lp163
I1
aa(lp164
(lp165
F1.0
aaaag65
ag80
ag143
a(lp166
(lp167
a(lp168
aaNa(lp169
(lp170
S'r'
p171
aS'l'
p172
aS'd'
p173
aS'u'
p174
aS'none'
p175
aa(lp176
(lp177
F0.0
aF0.0
aF1.0
aF0.0
aa(lp178
F0.0
aF1.0
aF0.0
aF0.0
aa(lp179
F1.0
aF0.0
aF0.0
aF0.0
aa(lp180
F0.0
aF0.0
aF0.0
aF1.0
aa(lp181
I0
aI0
aI0
aI0
aaaasS'pi'
p182
(dp183
sS'yMax'
p184
I4
sS'RMAX'
p185
I100
sS'oldMap'
p186
(dp187
sS'Q'
p188
(dp189
sS'R'
p190
(dp191
sS'obsRewards'
p192
g166
sS'obsState'
p193
g112
((lp194
tp195
Rp196
sS'schema_updates'
p197
(dp198
sS'obsActions'
p199
g169
sS'obsYsizes'
p200
g162
sS'prev'
p201
NsS'name'
p202
S'k'
p203
sS'dictionaries'
p204
(lp205
(lp206
(dp207
g35
g159
sg37
g157
sg39
g158
sa(dp208
(I1
I0
I0
tp209
g37
s(I0
I1
I0
tp210
g39
s(I0
I0
I1
tp211
g35
saa(lp212
(dp213
g42
g76
sg44
g78
sg39
g77
sa(dp214
(I1
I0
I0
tp215
g42
s(I0
I1
I0
tp216
g39
s(I0
I0
I1
tp217
g44
saa(lp218
(dp219
I1
g152
sa(dp220
(F1.0
tp221
I1
saa(lp222
(dp223
I1
g165
sa(dp224
(F1.0
tp225
I1
saa(lp226
(dp227
g6
g68
sg26
g69
sg28
g70
sg30
g71
sa(dp228
(F0.0
F0.0
F0.0
F1.0
tp229
g6
s(F1.0
F0.0
F0.0
F0.0
tp230
g30
s(F0.0
F0.0
F1.0
F0.0
tp231
g26
s(F0.0
F1.0
F0.0
F0.0
tp232
g28
saa(lp233
(dp234
g7
g83
sa(dp235
(F1.0
tp236
g7
saa(lp237
(dp238
g59
g146
sg8
g147
sa(dp239
(I0
I1
tp240
g8
s(I1
I0
tp241
g59
saa(lp242
(dp243
a(dp244
aaNa(lp245
(dp246
g175
g181
sg171
g177
sg174
g180
sg172
g178
sg173
g179
sa(dp247
(F0.0
F0.0
F0.0
F1.0
tp248
g174
s(I0
I0
I0
I0
tp249
g175
s(F1.0
F0.0
F0.0
F0.0
tp250
g173
s(F0.0
F0.0
F1.0
F0.0
tp251
g171
s(F0.0
F1.0
F0.0
F0.0
tp252
g172
saasS'objMap'
p253
(dp254
(I0
I1
tp255
(lp256
I10
as(I3
I2
tp257
(lp258
I8
as(I0
I0
tp259
(lp260
I12
as(I0
I3
tp261
(lp262
I5
as(I3
I0
tp263
(lp264
I15
as(I3
I4
tp265
(lp266
I3
as(I3
I1
tp267
(lp268
I18
as(I4
I4
tp269
(lp270
I4
as(I1
I4
tp271
(lp272
I1
as(I0
I2
tp273
(lp274
I7
as(I2
I0
tp275
(lp276
I14
as(I1
I3
tp277
(lp278
I19
as(I2
I4
tp279
(lp280
I2
as(I4
I3
tp281
(lp282
I6
as(I0
I4
tp283
(lp284
I0
as(I4
I2
tp285
(lp286
I9
as(I1
I0
tp287
(lp288
I13
as(I4
I1
tp289
(lp290
I11
as(I1
I1
tp291
(lp292
I17
as(I4
I0
tp293
(lp294
I16
assS'transition_data'
p295
(dp296
sS'objects'
p297
(dp298
I0
(iblox
Object
p299
(dp300
S'y_size'
p301
I1
sg202
I0
sS'x_pos'
p302
I0
sS'colour'
p303
g6
sS'x_size'
p304
I1
sS'shape'
p305
g7
sS'y_pos'
p306
I4
sS'nothing'
p307
g8
sbsI1
(iblox
Object
p308
(dp309
g301
I1
sg202
I1
sg302
I1
sg303
g6
sg304
I1
sg305
g7
sg306
I4
sg307
g8
sbsI2
(iblox
Object
p310
(dp311
g301
I1
sg202
I2
sg302
I2
sg303
g6
sg304
I1
sg305
g7
sg306
I4
sg307
g8
sbsI3
(iblox
Object
p312
(dp313
g301
I1
sg202
I3
sg302
I3
sg303
g6
sg304
I1
sg305
g7
sg306
I4
sg307
g8
sbsI4
(iblox
Object
p314
(dp315
g301
I1
sg202
I4
sg302
I4
sg303
g6
sg304
I1
sg305
g7
sg306
I4
sg307
g8
sbsI5
(iblox
Object
p316
(dp317
g301
I1
sg202
I5
sg302
I0
sg303
g6
sg304
I1
sg305
g7
sg306
I3
sg307
g8
sbsI6
(iblox
Object
p318
(dp319
g301
I1
sg202
I6
sg302
I4
sg303
g6
sg304
I1
sg305
g7
sg306
I3
sg307
g8
sbsI7
(iblox
Object
p320
(dp321
g301
I1
sg202
I7
sg302
I0
sg303
g6
sg304
I1
sg305
g7
sg306
I2
sg307
g8
sbsI8
(iblox
Object
p322
(dp323
g301
I1
sg202
I8
sg302
I3
sg303
g6
sg304
I1
sg305
g7
sg306
I2
sg307
g8
sbsI9
(iblox
Object
p324
(dp325
g301
I1
sg202
I9
sg302
I4
sg303
g6
sg304
I1
sg305
g7
sg306
I2
sg307
g8
sbsI10
(iblox
Object
p326
(dp327
g301
I1
sg202
I10
sg302
I0
sg303
g6
sg304
I1
sg305
g7
sg306
I1
sg307
g8
sbsI11
(iblox
Object
p328
(dp329
g301
I1
sg202
I11
sg302
I4
sg303
g6
sg304
I1
sg305
g7
sg306
I1
sg307
g8
sbsI12
(iblox
Object
p330
(dp331
g301
I1
sg202
I12
sg302
I0
sg303
g6
sg304
I1
sg305
g7
sg306
I0
sg307
g8
sbsI13
(iblox
Object
p332
(dp333
g301
I1
sg202
I13
sg302
I1
sg303
g6
sg304
I1
sg305
g7
sg306
I0
sg307
g8
sbsI14
(iblox
Object
p334
(dp335
g301
I1
sg202
I14
sg302
I2
sg303
g6
sg304
I1
sg305
g7
sg306
I0
sg307
g8
sbsI15
(iblox
Object
p336
(dp337
g301
I1
sg202
I15
sg302
I3
sg303
g6
sg304
I1
sg305
g7
sg306
I0
sg307
g8
sbsI16
(iblox
Object
p338
(dp339
g301
I1
sg202
I16
sg302
I4
sg303
g6
sg304
I1
sg305
g7
sg306
I0
sg307
g8
sbsI17
(iblox
Object
p340
(dp341
g301
I1
sg202
I17
sg302
I1
sg303
g26
sg304
I1
sg305
g7
sg306
I1
sg307
g8
sbsI18
(iblox
Object
p342
(dp343
g301
I1
sg202
I18
sg302
I3
sg303
g28
sg304
I1
sg305
g7
sg306
I1
sg307
g8
sbsI19
(iblox
Object
p344
(dp345
g301
I1
sg202
I19
sg302
I1
sg303
g30
sg304
I1
sg305
g7
sg306
I3
sg307
g8
sbssS'action'
p346
NsS'reward'
p347
Nsb.