(iblox
Model
p0
(dp1
S'deterministic'
p2
I01
sS'curr'
p3
(dp4
I0
(lp5
I0
aI4
aI1
aI1
aS'wall'
p6
aS'square'
p7
aS'no'
p8
asI1
(lp9
I1
aI4
aI1
aI1
ag6
ag7
ag8
asI2
(lp10
I2
aI4
aI1
aI1
ag6
ag7
ag8
asI3
(lp11
I3
aI4
aI1
aI1
ag6
ag7
ag8
asI4
(lp12
I4
aI4
aI1
aI1
ag6
ag7
ag8
asI5
(lp13
I0
aI3
aI1
aI1
ag6
ag7
ag8
asI6
(lp14
I4
aI3
aI1
aI1
ag6
ag7
ag8
asI7
(lp15
I0
aI2
aI1
aI1
ag6
ag7
ag8
asI8
(lp16
I3
aI2
aI1
aI1
ag6
ag7
ag8
asI9
(lp17
I4
aI2
aI1
aI1
ag6
ag7
ag8
asI10
(lp18
I0
aI1
aI1
aI1
ag6
ag7
ag8
asI11
(lp19
I4
aI1
aI1
aI1
ag6
ag7
ag8
asI12
(lp20
I0
aI0
aI1
aI1
ag6
ag7
ag8
asI13
(lp21
I1
aI0
aI1
aI1
ag6
ag7
ag8
asI14
(lp22
I2
aI0
aI1
aI1
ag6
ag7
ag8
asI15
(lp23
I3
aI0
aI1
aI1
ag6
ag7
ag8
asI16
(lp24
I4
aI0
aI1
aI1
ag6
ag7
ag8
asI17
(lp25
I1
aI1
aI1
aI1
aS'hole'
p26
ag7
ag8
asI18
(lp27
I3
aI1
aI1
aI1
aS'goal'
p28
ag7
ag8
asI19
(lp29
I3
aI3
aI1
aI1
aS'agent'
p30
ag7
ag8
assS'num_schemas'
p31
I23
sS'evidence'
p32
(lp33
(dp34
S'right'
p35
(lp36
sS'centre'
p37
(lp38
sS'left'
p39
(lp40
sa(dp41
S'below'
p42
(lp43
sS'above'
p44
(lp45
sg37
(lp46
sa(dp47
I1
(lp48
sa(dp49
I1
(lp50
sa(dp51
S'wall'
p52
(lp53
sS'hole'
p54
(lp55
sS'goal'
p56
(lp57
sS'agent'
p58
(lp59
sa(dp60
S'square'
p61
(lp62
sa(dp63
S'yes'
p64
(lp65
sS'no'
p66
(lp67
sa(dp68
I10
(lp69
sI-1
(lp70
sasS'xMax'
p71
I4
sS'obsColours'
p72
(lp73
(lp74
g52
ag54
ag56
ag58
aa(lp75
(lp76
F0.0
aF0.0
aF0.0
aF1.0
aa(lp77
F0.0
aF0.0
aF1.0
aF0.0
aa(lp78
F0.0
aF1.0
aF0.0
aF0.0
aa(lp79
F1.0
aF0.0
aF0.0
aF0.0
aaasS'obsYpos'
p80
(lp81
(lp82
g42
ag37
ag44
aa(lp83
(lp84
I1
aI0
aI0
aa(lp85
I0
aI1
aI0
aa(lp86
I0
aI0
aI1
aaasS'obsShapes'
p87
(lp88
(lp89
g61
aa(lp90
(lp91
F1.0
aaasS'schemas'
p92
(lp93
(dp94
g35
(lp95
(iblox
Schema
p96
(dp97
S'actionBody'
p98
S'r'
p99
sS'head'
p100
g35
sS'name'
p101
I7
sS'positive'
p102
I0
sS'negative'
p103
I0
sS'objectBody'
p104
(dp105
(I8
I6
tp106
g64
s(I1
I0
tp107
g39
s(I6
I6
tp108
g64
ssba(iblox
Schema
p109
(dp110
g98
g99
sg100
g35
sg101
I10
sg102
I0
sg103
I0
sg104
(dp111
(I3
I0
tp112
g35
s(I8
I0
tp113
g39
s(I7
I0
tp114
g39
s(I4
I6
tp115
g64
s(I0
I4
tp116
g58
ssba(iblox
Schema
p117
(dp118
g98
Nsg100
g35
sg101
I17
sg102
I0
sg103
I0
sg104
(dp119
(I6
I4
tp120
g54
ssbasg37
(lp121
sg39
(lp122
(iblox
Schema
p123
(dp124
g98
S'l'
p125
sg100
g39
sg101
I9
sg102
I0
sg103
I0
sg104
(dp126
(I5
I6
tp127
g66
s(I8
I6
tp128
g64
s(I7
I6
tp129
g64
s(I1
I4
tp130
g52
ssbasa(dp131
g42
(lp132
(iblox
Schema
p133
(dp134
g98
S'd'
p135
sg100
g42
sg101
I6
sg102
I0
sg103
I0
sg104
(dp136
(I3
I0
tp137
g35
s(I5
I0
tp138
g35
s(I1
I4
tp139
g52
s(I6
I6
tp140
g64
ssba(iblox
Schema
p141
(dp142
g98
g135
sg100
g42
sg101
I11
sg102
I0
sg103
I0
sg104
(dp143
(I3
I4
tp144
g52
s(I2
I4
tp145
g52
s(I1
I4
tp146
g52
s(I8
I4
tp147
g52
ssba(iblox
Schema
p148
(dp149
g98
g135
sg100
g42
sg101
I15
sg102
I0
sg103
I0
sg104
(dp150
(I3
I6
tp151
g64
s(I0
I4
tp152
g58
ssbasg44
(lp153
(iblox
Schema
p154
(dp155
g98
S'u'
p156
sg100
g44
sg101
I13
sg102
I0
sg103
I0
sg104
(dp157
(I5
I4
tp158
g56
ssba(iblox
Schema
p159
(dp160
g98
g156
sg100
g44
sg101
I16
sg102
I0
sg103
I0
sg104
(dp161
(I3
I0
tp162
g35
s(I8
I6
tp163
g66
s(I7
I6
tp164
g66
s(I2
I6
tp165
g64
s(I4
I0
tp166
g35
ssbasg37
(lp167
sa(dp168
I1
(lp169
sa(dp170
I1
(lp171
sa(dp172
g52
(lp173
sg54
(lp174
sg56
(lp175
sg58
(lp176
sa(dp177
g61
(lp178
sa(dp179
g64
(lp180
sg66
(lp181
sa(dp182
I10
(lp183
(iblox
Schema
p184
(dp185
g98
g99
sg100
I10
sg101
I18
sg102
I0
sg103
I0
sg104
(dp186
(I7
I4
tp187
g52
s(I6
I4
tp188
g52
s(I2
I6
tp189
g64
s(I1
I6
tp190
g64
s(I0
I4
tp191
g58
ssbasI-1
(lp192
(iblox
Schema
p193
(dp194
g98
Nsg100
I-1
sg101
I1
sg102
I0
sg103
I0
sg104
(dp195
(I5
I6
tp196
g64
s(I3
I4
tp197
g52
s(I7
I1
tp198
g42
ssba(iblox
Schema
p199
(dp200
g98
Nsg100
I-1
sg101
I3
sg102
I0
sg103
I0
sg104
(dp201
(I5
I4
tp202
g52
s(I4
I6
tp203
g64
s(I6
I6
tp204
g64
s(I1
I4
tp205
g52
s(I3
I4
tp206
g52
s(I2
I4
tp207
g52
ssba(iblox
Schema
p208
(dp209
g98
Nsg100
I-1
sg101
I19
sg102
I0
sg103
I0
sg104
(dp210
(I4
I4
tp211
g52
s(I0
I4
tp212
g58
ssba(iblox
Schema
p213
(dp214
g98
Nsg100
I-1
sg101
I20
sg102
I0
sg103
I0
sg104
(dp215
(I6
I4
tp216
g54
ssba(iblox
Schema
p217
(dp218
g98
g135
sg100
I-1
sg101
I21
sg102
I0
sg103
I0
sg104
(dp219
(I0
I4
tp220
g58
ssba(iblox
Schema
p221
(dp222
g98
g156
sg100
I-1
sg101
I22
sg102
I0
sg103
I0
sg104
(dp223
(I0
I4
tp224
g58
ssbasasS'obsTrans'
p225
c__builtin__
set
p226
((lp227
(((I0
(I0
I4
I1
I1
g6
g7
g8
tp228
tp229
(I1
(I1
I4
I1
I1
g6
g7
g8
tp230
tp231
(I2
(I2
I4
I1
I1
g6
g7
g8
tp232
tp233
(I3
(I3
I4
I1
I1
g6
g7
g8
tp234
tp235
(I4
(I4
I4
I1
I1
g6
g7
g8
tp236
tp237
(I5
(I0
I3
I1
I1
g6
g7
g8
tp238
tp239
(I6
(I4
I3
I1
I1
g6
g7
g8
tp240
tp241
(I7
(I0
I2
I1
I1
g6
g7
g8
tp242
tp243
(I8
(I3
I2
I1
I1
g6
g7
g8
tp244
tp245
(I9
(I4
I2
I1
I1
g6
g7
g8
tp246
tp247
(I10
(I0
I1
I1
I1
g6
g7
g8
tp248
tp249
(I11
(I4
I1
I1
I1
g6
g7
g8
tp250
tp251
(I12
(I0
I0
I1
I1
g6
g7
g8
tp252
tp253
(I13
(I1
I0
I1
I1
g6
g7
g8
tp254
tp255
(I14
(I2
I0
I1
I1
g6
g7
g8
tp256
tp257
(I15
(I3
I0
I1
I1
g6
g7
g8
tp258
tp259
(I16
(I4
I0
I1
I1
g6
g7
g8
tp260
tp261
(I17
(I1
I1
I1
I1
S'hole'
p262
g7
g8
tp263
tp264
(I18
(I3
I1
I1
I1
S'goal'
p265
g7
g8
tp266
tp267
(I19
(I2
I3
I1
I1
g30
g7
g8
tp268
tp269
tp270
S'u'
p271
((I0
(I0
I4
I1
I1
g6
g7
g8
tp272
tp273
(I1
(I1
I4
I1
I1
g6
g7
g8
tp274
tp275
(I2
(I2
I4
I1
I1
g6
g7
g8
tp276
tp277
(I3
(I3
I4
I1
I1
g6
g7
g8
tp278
tp279
(I4
(I4
I4
I1
I1
g6
g7
g8
tp280
tp281
(I5
(I0
I3
I1
I1
g6
g7
g8
tp282
tp283
(I6
(I4
I3
I1
I1
g6
g7
g8
tp284
tp285
(I7
(I0
I2
I1
I1
g6
g7
g8
tp286
tp287
(I8
(I3
I2
I1
I1
g6
g7
g8
tp288
tp289
(I9
(I4
I2
I1
I1
g6
g7
g8
tp290
tp291
(I10
(I0
I1
I1
I1
g6
g7
g8
tp292
tp293
(I11
(I4
I1
I1
I1
g6
g7
g8
tp294
tp295
(I12
(I0
I0
I1
I1
g6
g7
g8
tp296
tp297
(I13
(I1
I0
I1
I1
g6
g7
g8
tp298
tp299
(I14
(I2
I0
I1
I1
g6
g7
g8
tp300
tp301
(I15
(I3
I0
I1
I1
g6
g7
g8
tp302
tp303
(I16
(I4
I0
I1
I1
g6
g7
g8
tp304
tp305
(I17
(I1
I1
I1
I1
g262
g7
g8
tp306
tp307
(I18
(I3
I1
I1
I1
g265
g7
g8
tp308
tp309
(I19
(I2
I3
I1
I1
g30
g7
g8
tp310
tp311
tp312
I-1
tp313
a(((I0
(I0
I4
I1
I1
g6
g7
g8
tp314
tp315
(I1
(I1
I4
I1
I1
g6
g7
g8
tp316
tp317
(I2
(I2
I4
I1
I1
g6
g7
g8
tp318
tp319
(I3
(I3
I4
I1
I1
g6
g7
g8
tp320
tp321
(I4
(I4
I4
I1
I1
g6
g7
g8
tp322
tp323
(I5
(I0
I3
I1
I1
g6
g7
g8
tp324
tp325
(I6
(I4
I3
I1
I1
g6
g7
g8
tp326
tp327
(I7
(I0
I2
I1
I1
g6
g7
g8
tp328
tp329
(I8
(I3
I2
I1
I1
g6
g7
g8
tp330
tp331
(I9
(I4
I2
I1
I1
g6
g7
g8
tp332
tp333
(I10
(I0
I1
I1
I1
g6
g7
g8
tp334
tp335
(I11
(I4
I1
I1
I1
g6
g7
g8
tp336
tp337
(I12
(I0
I0
I1
I1
g6
g7
g8
tp338
tp339
(I13
(I1
I0
I1
I1
g6
g7
g8
tp340
tp341
(I14
(I2
I0
I1
I1
g6
g7
g8
tp342
tp343
(I15
(I3
I0
I1
I1
g6
g7
g8
tp344
tp345
(I16
(I4
I0
I1
I1
g6
g7
g8
tp346
tp347
(I17
(I1
I1
I1
I1
g262
g7
g8
tp348
tp349
(I18
(I3
I1
I1
I1
g265
g7
g8
tp350
tp351
(I19
(I2
I3
I1
I1
g30
g7
g8
tp352
tp353
tp354
S'r'
p355
((I0
(I0
I4
I1
I1
g6
g7
g8
tp356
tp357
(I1
(I1
I4
I1
I1
g6
g7
g8
tp358
tp359
(I2
(I2
I4
I1
I1
g6
g7
g8
tp360
tp361
(I3
(I3
I4
I1
I1
g6
g7
g8
tp362
tp363
(I4
(I4
I4
I1
I1
g6
g7
g8
tp364
tp365
(I5
(I0
I3
I1
I1
g6
g7
g8
tp366
tp367
(I6
(I4
I3
I1
I1
g6
g7
g8
tp368
tp369
(I7
(I0
I2
I1
I1
g6
g7
g8
tp370
tp371
(I8
(I3
I2
I1
I1
g6
g7
g8
tp372
tp373
(I9
(I4
I2
I1
I1
g6
g7
g8
tp374
tp375
(I10
(I0
I1
I1
I1
g6
g7
g8
tp376
tp377
(I11
(I4
I1
I1
I1
g6
g7
g8
tp378
tp379
(I12
(I0
I0
I1
I1
g6
g7
g8
tp380
tp381
(I13
(I1
I0
I1
I1
g6
g7
g8
tp382
tp383
(I14
(I2
I0
I1
I1
g6
g7
g8
tp384
tp385
(I15
(I3
I0
I1
I1
g6
g7
g8
tp386
tp387
(I16
(I4
I0
I1
I1
g6
g7
g8
tp388
tp389
(I17
(I1
I1
I1
I1
g262
g7
g8
tp390
tp391
(I18
(I3
I1
I1
I1
g265
g7
g8
tp392
tp393
(I19
(I3
I3
I1
I1
g30
g7
g8
tp394
tp395
tp396
I-1
tp397
a(((I0
(I0
I4
I1
I1
g6
g7
g8
tp398
tp399
(I1
(I1
I4
I1
I1
g6
g7
g8
tp400
tp401
(I2
(I2
I4
I1
I1
g6
g7
g8
tp402
tp403
(I3
(I3
I4
I1
I1
g6
g7
g8
tp404
tp405
(I4
(I4
I4
I1
I1
g6
g7
g8
tp406
tp407
(I5
(I0
I3
I1
I1
g6
g7
g8
tp408
tp409
(I6
(I4
I3
I1
I1
g6
g7
g8
tp410
tp411
(I7
(I0
I2
I1
I1
g6
g7
g8
tp412
tp413
(I8
(I3
I2
I1
I1
g6
g7
g8
tp414
tp415
(I9
(I4
I2
I1
I1
g6
g7
g8
tp416
tp417
(I10
(I0
I1
I1
I1
g6
g7
g8
tp418
tp419
(I11
(I4
I1
I1
I1
g6
g7
g8
tp420
tp421
(I12
(I0
I0
I1
I1
g6
g7
g8
tp422
tp423
(I13
(I1
I0
I1
I1
g6
g7
g8
tp424
tp425
(I14
(I2
I0
I1
I1
g6
g7
g8
tp426
tp427
(I15
(I3
I0
I1
I1
g6
g7
g8
tp428
tp429
(I16
(I4
I0
I1
I1
g6
g7
g8
tp430
tp431
(I17
(I1
I1
I1
I1
g262
g7
g8
tp432
tp433
(I18
(I3
I1
I1
I1
g265
g7
g8
tp434
tp435
(I19
(I2
I3
I1
I1
g30
g7
g8
tp436
tp437
tp438
S'l'
p439
((I0
(I0
I4
I1
I1
g6
g7
g8
tp440
tp441
(I1
(I1
I4
I1
I1
g6
g7
g8
tp442
tp443
(I2
(I2
I4
I1
I1
g6
g7
g8
tp444
tp445
(I3
(I3
I4
I1
I1
g6
g7
g8
tp446
tp447
(I4
(I4
I4
I1
I1
g6
g7
g8
tp448
tp449
(I5
(I0
I3
I1
I1
g6
g7
g8
tp450
tp451
(I6
(I4
I3
I1
I1
g6
g7
g8
tp452
tp453
(I7
(I0
I2
I1
I1
g6
g7
g8
tp454
tp455
(I8
(I3
I2
I1
I1
g6
g7
g8
tp456
tp457
(I9
(I4
I2
I1
I1
g6
g7
g8
tp458
tp459
(I10
(I0
I1
I1
I1
g6
g7
g8
tp460
tp461
(I11
(I4
I1
I1
I1
g6
g7
g8
tp462
tp463
(I12
(I0
I0
I1
I1
g6
g7
g8
tp464
tp465
(I13
(I1
I0
I1
I1
g6
g7
g8
tp466
tp467
(I14
(I2
I0
I1
I1
g6
g7
g8
tp468
tp469
(I15
(I3
I0
I1
I1
g6
g7
g8
tp470
tp471
(I16
(I4
I0
I1
I1
g6
g7
g8
tp472
tp473
(I17
(I1
I1
I1
I1
g262
g7
g8
tp474
tp475
(I18
(I3
I1
I1
I1
g265
g7
g8
tp476
tp477
(I19
(I1
I3
I1
I1
g30
g7
g8
tp478
tp479
tp480
I-1
tp481
a(((I0
(I0
I4
I1
I1
g6
g7
g8
tp482
tp483
(I1
(I1
I4
I1
I1
g6
g7
g8
tp484
tp485
(I2
(I2
I4
I1
I1
g6
g7
g8
tp486
tp487
(I3
(I3
I4
I1
I1
g6
g7
g8
tp488
tp489
(I4
(I4
I4
I1
I1
g6
g7
g8
tp490
tp491
(I5
(I0
I3
I1
I1
g6
g7
g8
tp492
tp493
(I6
(I4
I3
I1
I1
g6
g7
g8
tp494
tp495
(I7
(I0
I2
I1
I1
g6
g7
g8
tp496
tp497
(I8
(I3
I2
I1
I1
g6
g7
g8
tp498
tp499
(I9
(I4
I2
I1
I1
g6
g7
g8
tp500
tp501
(I10
(I0
I1
I1
I1
g6
g7
g8
tp502
tp503
(I11
(I4
I1
I1
I1
g6
g7
g8
tp504
tp505
(I12
(I0
I0
I1
I1
g6
g7
g8
tp506
tp507
(I13
(I1
I0
I1
I1
g6
g7
g8
tp508
tp509
(I14
(I2
I0
I1
I1
g6
g7
g8
tp510
tp511
(I15
(I3
I0
I1
I1
g6
g7
g8
tp512
tp513
(I16
(I4
I0
I1
I1
g6
g7
g8
tp514
tp515
(I17
(I1
I1
I1
I1
g262
g7
g8
tp516
tp517
(I18
(I3
I1
I1
I1
g265
g7
g8
tp518
tp519
(I19
(I3
I3
I1
I1
g30
g7
g8
tp520
tp521
tp522
S'r'
p523
((I0
(I0
I4
I1
I1
g6
g7
g8
tp524
tp525
(I1
(I1
I4
I1
I1
g6
g7
g8
tp526
tp527
(I2
(I2
I4
I1
I1
g6
g7
g8
tp528
tp529
(I3
(I3
I4
I1
I1
g6
g7
g8
tp530
tp531
(I4
(I4
I4
I1
I1
g6
g7
g8
tp532
tp533
(I5
(I0
I3
I1
I1
g6
g7
g8
tp534
tp535
(I6
(I4
I3
I1
I1
g6
g7
g8
tp536
tp537
(I7
(I0
I2
I1
I1
g6
g7
g8
tp538
tp539
(I8
(I3
I2
I1
I1
g6
g7
g8
tp540
tp541
(I9
(I4
I2
I1
I1
g6
g7
g8
tp542
tp543
(I10
(I0
I1
I1
I1
g6
g7
g8
tp544
tp545
(I11
(I4
I1
I1
I1
g6
g7
g8
tp546
tp547
(I12
(I0
I0
I1
I1
g6
g7
g8
tp548
tp549
(I13
(I1
I0
I1
I1
g6
g7
g8
tp550
tp551
(I14
(I2
I0
I1
I1
g6
g7
g8
tp552
tp553
(I15
(I3
I0
I1
I1
g6
g7
g8
tp554
tp555
(I16
(I4
I0
I1
I1
g6
g7
g8
tp556
tp557
(I17
(I1
I1
I1
I1
g262
g7
g8
tp558
tp559
(I18
(I3
I1
I1
I1
g265
g7
g8
tp560
tp561
(I19
(I3
I3
I1
I1
g30
g7
g8
tp562
tp563
tp564
I-1
tp565
a(((I0
(I0
I4
I1
I1
g6
g7
g8
tp566
tp567
(I1
(I1
I4
I1
I1
g6
g7
g8
tp568
tp569
(I2
(I2
I4
I1
I1
g6
g7
g8
tp570
tp571
(I3
(I3
I4
I1
I1
g6
g7
g8
tp572
tp573
(I4
(I4
I4
I1
I1
g6
g7
g8
tp574
tp575
(I5
(I0
I3
I1
I1
g6
g7
g8
tp576
tp577
(I6
(I4
I3
I1
I1
g6
g7
g8
tp578
tp579
(I7
(I0
I2
I1
I1
g6
g7
g8
tp580
tp581
(I8
(I3
I2
I1
I1
g6
g7
g8
tp582
tp583
(I9
(I4
I2
I1
I1
g6
g7
g8
tp584
tp585
(I10
(I0
I1
I1
I1
g6
g7
g8
tp586
tp587
(I11
(I4
I1
I1
I1
g6
g7
g8
tp588
tp589
(I12
(I0
I0
I1
I1
g6
g7
g8
tp590
tp591
(I13
(I1
I0
I1
I1
g6
g7
g8
tp592
tp593
(I14
(I2
I0
I1
I1
g6
g7
g8
tp594
tp595
(I15
(I3
I0
I1
I1
g6
g7
g8
tp596
tp597
(I16
(I4
I0
I1
I1
g6
g7
g8
tp598
tp599
(I17
(I1
I1
I1
I1
g262
g7
g8
tp600
tp601
(I18
(I3
I1
I1
I1
g265
g7
g8
tp602
tp603
(I19
(I1
I2
I1
I1
g30
g7
g8
tp604
tp605
tp606
S'r'
p607
((I0
(I0
I4
I1
I1
g6
g7
g8
tp608
tp609
(I1
(I1
I4
I1
I1
g6
g7
g8
tp610
tp611
(I2
(I2
I4
I1
I1
g6
g7
g8
tp612
tp613
(I3
(I3
I4
I1
I1
g6
g7
g8
tp614
tp615
(I4
(I4
I4
I1
I1
g6
g7
g8
tp616
tp617
(I5
(I0
I3
I1
I1
g6
g7
g8
tp618
tp619
(I6
(I4
I3
I1
I1
g6
g7
g8
tp620
tp621
(I7
(I0
I2
I1
I1
g6
g7
g8
tp622
tp623
(I8
(I3
I2
I1
I1
g6
g7
g8
tp624
tp625
(I9
(I4
I2
I1
I1
g6
g7
g8
tp626
tp627
(I10
(I0
I1
I1
I1
g6
g7
g8
tp628
tp629
(I11
(I4
I1
I1
I1
g6
g7
g8
tp630
tp631
(I12
(I0
I0
I1
I1
g6
g7
g8
tp632
tp633
(I13
(I1
I0
I1
I1
g6
g7
g8
tp634
tp635
(I14
(I2
I0
I1
I1
g6
g7
g8
tp636
tp637
(I15
(I3
I0
I1
I1
g6
g7
g8
tp638
tp639
(I16
(I4
I0
I1
I1
g6
g7
g8
tp640
tp641
(I17
(I1
I1
I1
I1
g262
g7
g8
tp642
tp643
(I18
(I3
I1
I1
I1
g265
g7
g8
tp644
tp645
(I19
(I2
I2
I1
I1
g30
g7
g8
tp646
tp647
tp648
I-1
tp649
a(((I0
(I0
I4
I1
I1
g6
g7
g8
tp650
tp651
(I1
(I1
I4
I1
I1
g6
g7
g8
tp652
tp653
(I2
(I2
I4
I1
I1
g6
g7
g8
tp654
tp655
(I3
(I3
I4
I1
I1
g6
g7
g8
tp656
tp657
(I4
(I4
I4
I1
I1
g6
g7
g8
tp658
tp659
(I5
(I0
I3
I1
I1
g6
g7
g8
tp660
tp661
(I6
(I4
I3
I1
I1
g6
g7
g8
tp662
tp663
(I7
(I0
I2
I1
I1
g6
g7
g8
tp664
tp665
(I8
(I3
I2
I1
I1
g6
g7
g8
tp666
tp667
(I9
(I4
I2
I1
I1
g6
g7
g8
tp668
tp669
(I10
(I0
I1
I1
I1
g6
g7
g8
tp670
tp671
(I11
(I4
I1
I1
I1
g6
g7
g8
tp672
tp673
(I12
(I0
I0
I1
I1
g6
g7
g8
tp674
tp675
(I13
(I1
I0
I1
I1
g6
g7
g8
tp676
tp677
(I14
(I2
I0
I1
I1
g6
g7
g8
tp678
tp679
(I15
(I3
I0
I1
I1
g6
g7
g8
tp680
tp681
(I16
(I4
I0
I1
I1
g6
g7
g8
tp682
tp683
(I17
(I1
I1
I1
I1
g262
g7
g8
tp684
tp685
(I18
(I3
I1
I1
I1
g265
g7
g8
tp686
tp687
(I19
(I2
I1
I1
I1
g30
g7
g8
tp688
tp689
tp690
S'u'
p691
((I0
(I0
I4
I1
I1
g6
g7
g8
tp692
tp693
(I1
(I1
I4
I1
I1
g6
g7
g8
tp694
tp695
(I2
(I2
I4
I1
I1
g6
g7
g8
tp696
tp697
(I3
(I3
I4
I1
I1
g6
g7
g8
tp698
tp699
(I4
(I4
I4
I1
I1
g6
g7
g8
tp700
tp701
(I5
(I0
I3
I1
I1
g6
g7
g8
tp702
tp703
(I6
(I4
I3
I1
I1
g6
g7
g8
tp704
tp705
(I7
(I0
I2
I1
I1
g6
g7
g8
tp706
tp707
(I8
(I3
I2
I1
I1
g6
g7
g8
tp708
tp709
(I9
(I4
I2
I1
I1
g6
g7
g8
tp710
tp711
(I10
(I0
I1
I1
I1
g6
g7
g8
tp712
tp713
(I11
(I4
I1
I1
I1
g6
g7
g8
tp714
tp715
(I12
(I0
I0
I1
I1
g6
g7
g8
tp716
tp717
(I13
(I1
I0
I1
I1
g6
g7
g8
tp718
tp719
(I14
(I2
I0
I1
I1
g6
g7
g8
tp720
tp721
(I15
(I3
I0
I1
I1
g6
g7
g8
tp722
tp723
(I16
(I4
I0
I1
I1
g6
g7
g8
tp724
tp725
(I17
(I1
I1
I1
I1
g262
g7
g8
tp726
tp727
(I18
(I3
I1
I1
I1
g265
g7
g8
tp728
tp729
(I19
(I2
I2
I1
I1
g30
g7
g8
tp730
tp731
tp732
I-1
tp733
a(((I0
(I0
I4
I1
I1
g6
g7
g8
tp734
tp735
(I1
(I1
I4
I1
I1
g6
g7
g8
tp736
tp737
(I2
(I2
I4
I1
I1
g6
g7
g8
tp738
tp739
(I3
(I3
I4
I1
I1
g6
g7
g8
tp740
tp741
(I4
(I4
I4
I1
I1
g6
g7
g8
tp742
tp743
(I5
(I0
I3
I1
I1
g6
g7
g8
tp744
tp745
(I6
(I4
I3
I1
I1
g6
g7
g8
tp746
tp747
(I7
(I0
I2
I1
I1
g6
g7
g8
tp748
tp749
(I8
(I3
I2
I1
I1
g6
g7
g8
tp750
tp751
(I9
(I4
I2
I1
I1
g6
g7
g8
tp752
tp753
(I10
(I0
I1
I1
I1
g6
g7
g8
tp754
tp755
(I11
(I4
I1
I1
I1
g6
g7
g8
tp756
tp757
(I12
(I0
I0
I1
I1
g6
g7
g8
tp758
tp759
(I13
(I1
I0
I1
I1
g6
g7
g8
tp760
tp761
(I14
(I2
I0
I1
I1
g6
g7
g8
tp762
tp763
(I15
(I3
I0
I1
I1
g6
g7
g8
tp764
tp765
(I16
(I4
I0
I1
I1
g6
g7
g8
tp766
tp767
(I17
(I1
I1
I1
I1
g262
g7
g8
tp768
tp769
(I18
(I3
I1
I1
I1
g265
g7
g8
tp770
tp771
(I19
(I2
I2
I1
I1
g30
g7
g8
tp772
tp773
tp774
S'd'
p775
((I0
(I0
I4
I1
I1
g6
g7
g8
tp776
tp777
(I1
(I1
I4
I1
I1
g6
g7
g8
tp778
tp779
(I2
(I2
I4
I1
I1
g6
g7
g8
tp780
tp781
(I3
(I3
I4
I1
I1
g6
g7
g8
tp782
tp783
(I4
(I4
I4
I1
I1
g6
g7
g8
tp784
tp785
(I5
(I0
I3
I1
I1
g6
g7
g8
tp786
tp787
(I6
(I4
I3
I1
I1
g6
g7
g8
tp788
tp789
(I7
(I0
I2
I1
I1
g6
g7
g8
tp790
tp791
(I8
(I3
I2
I1
I1
g6
g7
g8
tp792
tp793
(I9
(I4
I2
I1
I1
g6
g7
g8
tp794
tp795
(I10
(I0
I1
I1
I1
g6
g7
g8
tp796
tp797
(I11
(I4
I1
I1
I1
g6
g7
g8
tp798
tp799
(I12
(I0
I0
I1
I1
g6
g7
g8
tp800
tp801
(I13
(I1
I0
I1
I1
g6
g7
g8
tp802
tp803
(I14
(I2
I0
I1
I1
g6
g7
g8
tp804
tp805
(I15
(I3
I0
I1
I1
g6
g7
g8
tp806
tp807
(I16
(I4
I0
I1
I1
g6
g7
g8
tp808
tp809
(I17
(I1
I1
I1
I1
g262
g7
g8
tp810
tp811
(I18
(I3
I1
I1
I1
g265
g7
g8
tp812
tp813
(I19
(I2
I1
I1
I1
g30
g7
g8
tp814
tp815
tp816
I-1
tp817
a(((I0
(I0
I4
I1
I1
g6
g7
g8
tp818
tp819
(I1
(I1
I4
I1
I1
g6
g7
g8
tp820
tp821
(I2
(I2
I4
I1
I1
g6
g7
g8
tp822
tp823
(I3
(I3
I4
I1
I1
g6
g7
g8
tp824
tp825
(I4
(I4
I4
I1
I1
g6
g7
g8
tp826
tp827
(I5
(I0
I3
I1
I1
g6
g7
g8
tp828
tp829
(I6
(I4
I3
I1
I1
g6
g7
g8
tp830
tp831
(I7
(I0
I2
I1
I1
g6
g7
g8
tp832
tp833
(I8
(I3
I2
I1
I1
g6
g7
g8
tp834
tp835
(I9
(I4
I2
I1
I1
g6
g7
g8
tp836
tp837
(I10
(I0
I1
I1
I1
g6
g7
g8
tp838
tp839
(I11
(I4
I1
I1
I1
g6
g7
g8
tp840
tp841
(I12
(I0
I0
I1
I1
g6
g7
g8
tp842
tp843
(I13
(I1
I0
I1
I1
g6
g7
g8
tp844
tp845
(I14
(I2
I0
I1
I1
g6
g7
g8
tp846
tp847
(I15
(I3
I0
I1
I1
g6
g7
g8
tp848
tp849
(I16
(I4
I0
I1
I1
g6
g7
g8
tp850
tp851
(I17
(I1
I1
I1
I1
g262
g7
g8
tp852
tp853
(I18
(I3
I1
I1
I1
g265
g7
g8
tp854
tp855
(I19
(I2
I1
I1
I1
g30
g7
g8
tp856
tp857
tp858
S'd'
p859
((I0
(I0
I4
I1
I1
g6
g7
g8
tp860
tp861
(I1
(I1
I4
I1
I1
g6
g7
g8
tp862
tp863
(I2
(I2
I4
I1
I1
g6
g7
g8
tp864
tp865
(I3
(I3
I4
I1
I1
g6
g7
g8
tp866
tp867
(I4
(I4
I4
I1
I1
g6
g7
g8
tp868
tp869
(I5
(I0
I3
I1
I1
g6
g7
g8
tp870
tp871
(I6
(I4
I3
I1
I1
g6
g7
g8
tp872
tp873
(I7
(I0
I2
I1
I1
g6
g7
g8
tp874
tp875
(I8
(I3
I2
I1
I1
g6
g7
g8
tp876
tp877
(I9
(I4
I2
I1
I1
g6
g7
g8
tp878
tp879
(I10
(I0
I1
I1
I1
g6
g7
g8
tp880
tp881
(I11
(I4
I1
I1
I1
g6
g7
g8
tp882
tp883
(I12
(I0
I0
I1
I1
g6
g7
g8
tp884
tp885
(I13
(I1
I0
I1
I1
g6
g7
g8
tp886
tp887
(I14
(I2
I0
I1
I1
g6
g7
g8
tp888
tp889
(I15
(I3
I0
I1
I1
g6
g7
g8
tp890
tp891
(I16
(I4
I0
I1
I1
g6
g7
g8
tp892
tp893
(I17
(I1
I1
I1
I1
g262
g7
g8
tp894
tp895
(I18
(I3
I1
I1
I1
g265
g7
g8
tp896
tp897
(I19
(I2
I1
I1
I1
g30
g7
g8
tp898
tp899
tp900
I-1
tp901
a(((I0
(I0
I4
I1
I1
g6
g7
g8
tp902
tp903
(I1
(I1
I4
I1
I1
g6
g7
g8
tp904
tp905
(I2
(I2
I4
I1
I1
g6
g7
g8
tp906
tp907
(I3
(I3
I4
I1
I1
g6
g7
g8
tp908
tp909
(I4
(I4
I4
I1
I1
g6
g7
g8
tp910
tp911
(I5
(I0
I3
I1
I1
g6
g7
g8
tp912
tp913
(I6
(I4
I3
I1
I1
g6
g7
g8
tp914
tp915
(I7
(I0
I2
I1
I1
g6
g7
g8
tp916
tp917
(I8
(I3
I2
I1
I1
g6
g7
g8
tp918
tp919
(I9
(I4
I2
I1
I1
g6
g7
g8
tp920
tp921
(I10
(I0
I1
I1
I1
g6
g7
g8
tp922
tp923
(I11
(I4
I1
I1
I1
g6
g7
g8
tp924
tp925
(I12
(I0
I0
I1
I1
g6
g7
g8
tp926
tp927
(I13
(I1
I0
I1
I1
g6
g7
g8
tp928
tp929
(I14
(I2
I0
I1
I1
g6
g7
g8
tp930
tp931
(I15
(I3
I0
I1
I1
g6
g7
g8
tp932
tp933
(I16
(I4
I0
I1
I1
g6
g7
g8
tp934
tp935
(I17
(I1
I1
I1
I1
g262
g7
g8
tp936
tp937
(I18
(I3
I1
I1
I1
g265
g7
g8
tp938
tp939
(I19
(I1
I3
I1
I1
g30
g7
g8
tp940
tp941
tp942
S'r'
p943
((I0
(I0
I4
I1
I1
g6
g7
g8
tp944
tp945
(I1
(I1
I4
I1
I1
g6
g7
g8
tp946
tp947
(I2
(I2
I4
I1
I1
g6
g7
g8
tp948
tp949
(I3
(I3
I4
I1
I1
g6
g7
g8
tp950
tp951
(I4
(I4
I4
I1
I1
g6
g7
g8
tp952
tp953
(I5
(I0
I3
I1
I1
g6
g7
g8
tp954
tp955
(I6
(I4
I3
I1
I1
g6
g7
g8
tp956
tp957
(I7
(I0
I2
I1
I1
g6
g7
g8
tp958
tp959
(I8
(I3
I2
I1
I1
g6
g7
g8
tp960
tp961
(I9
(I4
I2
I1
I1
g6
g7
g8
tp962
tp963
(I10
(I0
I1
I1
I1
g6
g7
g8
tp964
tp965
(I11
(I4
I1
I1
I1
g6
g7
g8
tp966
tp967
(I12
(I0
I0
I1
I1
g6
g7
g8
tp968
tp969
(I13
(I1
I0
I1
I1
g6
g7
g8
tp970
tp971
(I14
(I2
I0
I1
I1
g6
g7
g8
tp972
tp973
(I15
(I3
I0
I1
I1
g6
g7
g8
tp974
tp975
(I16
(I4
I0
I1
I1
g6
g7
g8
tp976
tp977
(I17
(I1
I1
I1
I1
g262
g7
g8
tp978
tp979
(I18
(I3
I1
I1
I1
g265
g7
g8
tp980
tp981
(I19
(I2
I3
I1
I1
g30
g7
g8
tp982
tp983
tp984
I-1
tp985
a(((I0
(I0
I4
I1
I1
g6
g7
g8
tp986
tp987
(I1
(I1
I4
I1
I1
g6
g7
g8
tp988
tp989
(I2
(I2
I4
I1
I1
g6
g7
g8
tp990
tp991
(I3
(I3
I4
I1
I1
g6
g7
g8
tp992
tp993
(I4
(I4
I4
I1
I1
g6
g7
g8
tp994
tp995
(I5
(I0
I3
I1
I1
g6
g7
g8
tp996
tp997
(I6
(I4
I3
I1
I1
g6
g7
g8
tp998
tp999
(I7
(I0
I2
I1
I1
g6
g7
g8
tp1000
tp1001
(I8
(I3
I2
I1
I1
g6
g7
g8
tp1002
tp1003
(I9
(I4
I2
I1
I1
g6
g7
g8
tp1004
tp1005
(I10
(I0
I1
I1
I1
g6
g7
g8
tp1006
tp1007
(I11
(I4
I1
I1
I1
g6
g7
g8
tp1008
tp1009
(I12
(I0
I0
I1
I1
g6
g7
g8
tp1010
tp1011
(I13
(I1
I0
I1
I1
g6
g7
g8
tp1012
tp1013
(I14
(I2
I0
I1
I1
g6
g7
g8
tp1014
tp1015
(I15
(I3
I0
I1
I1
g6
g7
g8
tp1016
tp1017
(I16
(I4
I0
I1
I1
g6
g7
g8
tp1018
tp1019
(I17
(I1
I1
I1
I1
g262
g7
g8
tp1020
tp1021
(I18
(I3
I1
I1
I1
g265
g7
g8
tp1022
tp1023
(I19
(I2
I2
I1
I1
g30
g7
g8
tp1024
tp1025
tp1026
S'u'
p1027
((I0
(I0
I4
I1
I1
g6
g7
g8
tp1028
tp1029
(I1
(I1
I4
I1
I1
g6
g7
g8
tp1030
tp1031
(I2
(I2
I4
I1
I1
g6
g7
g8
tp1032
tp1033
(I3
(I3
I4
I1
I1
g6
g7
g8
tp1034
tp1035
(I4
(I4
I4
I1
I1
g6
g7
g8
tp1036
tp1037
(I5
(I0
I3
I1
I1
g6
g7
g8
tp1038
tp1039
(I6
(I4
I3
I1
I1
g6
g7
g8
tp1040
tp1041
(I7
(I0
I2
I1
I1
g6
g7
g8
tp1042
tp1043
(I8
(I3
I2
I1
I1
g6
g7
g8
tp1044
tp1045
(I9
(I4
I2
I1
I1
g6
g7
g8
tp1046
tp1047
(I10
(I0
I1
I1
I1
g6
g7
g8
tp1048
tp1049
(I11
(I4
I1
I1
I1
g6
g7
g8
tp1050
tp1051
(I12
(I0
I0
I1
I1
g6
g7
g8
tp1052
tp1053
(I13
(I1
I0
I1
I1
g6
g7
g8
tp1054
tp1055
(I14
(I2
I0
I1
I1
g6
g7
g8
tp1056
tp1057
(I15
(I3
I0
I1
I1
g6
g7
g8
tp1058
tp1059
(I16
(I4
I0
I1
I1
g6
g7
g8
tp1060
tp1061
(I17
(I1
I1
I1
I1
g262
g7
g8
tp1062
tp1063
(I18
(I3
I1
I1
I1
g265
g7
g8
tp1064
tp1065
(I19
(I2
I3
I1
I1
g30
g7
g8
tp1066
tp1067
tp1068
I-1
tp1069
a(((I0
(I0
I4
I1
I1
g6
g7
g8
tp1070
tp1071
(I1
(I1
I4
I1
I1
g6
g7
g8
tp1072
tp1073
(I2
(I2
I4
I1
I1
g6
g7
g8
tp1074
tp1075
(I3
(I3
I4
I1
I1
g6
g7
g8
tp1076
tp1077
(I4
(I4
I4
I1
I1
g6
g7
g8
tp1078
tp1079
(I5
(I0
I3
I1
I1
g6
g7
g8
tp1080
tp1081
(I6
(I4
I3
I1
I1
g6
g7
g8
tp1082
tp1083
(I7
(I0
I2
I1
I1
g6
g7
g8
tp1084
tp1085
(I8
(I3
I2
I1
I1
g6
g7
g8
tp1086
tp1087
(I9
(I4
I2
I1
I1
g6
g7
g8
tp1088
tp1089
(I10
(I0
I1
I1
I1
g6
g7
g8
tp1090
tp1091
(I11
(I4
I1
I1
I1
g6
g7
g8
tp1092
tp1093
(I12
(I0
I0
I1
I1
g6
g7
g8
tp1094
tp1095
(I13
(I1
I0
I1
I1
g6
g7
g8
tp1096
tp1097
(I14
(I2
I0
I1
I1
g6
g7
g8
tp1098
tp1099
(I15
(I3
I0
I1
I1
g6
g7
g8
tp1100
tp1101
(I16
(I4
I0
I1
I1
g6
g7
g8
tp1102
tp1103
(I17
(I1
I1
I1
I1
g262
g7
g8
tp1104
tp1105
(I18
(I3
I1
I1
I1
g265
g7
g8
tp1106
tp1107
(I19
(I1
I3
I1
I1
g30
g7
g8
tp1108
tp1109
tp1110
S'l'
p1111
((I0
(I0
I4
I1
I1
g6
g7
g8
tp1112
tp1113
(I1
(I1
I4
I1
I1
g6
g7
g8
tp1114
tp1115
(I2
(I2
I4
I1
I1
g6
g7
g8
tp1116
tp1117
(I3
(I3
I4
I1
I1
g6
g7
g8
tp1118
tp1119
(I4
(I4
I4
I1
I1
g6
g7
g8
tp1120
tp1121
(I5
(I0
I3
I1
I1
g6
g7
g8
tp1122
tp1123
(I6
(I4
I3
I1
I1
g6
g7
g8
tp1124
tp1125
(I7
(I0
I2
I1
I1
g6
g7
g8
tp1126
tp1127
(I8
(I3
I2
I1
I1
g6
g7
g8
tp1128
tp1129
(I9
(I4
I2
I1
I1
g6
g7
g8
tp1130
tp1131
(I10
(I0
I1
I1
I1
g6
g7
g8
tp1132
tp1133
(I11
(I4
I1
I1
I1
g6
g7
g8
tp1134
tp1135
(I12
(I0
I0
I1
I1
g6
g7
g8
tp1136
tp1137
(I13
(I1
I0
I1
I1
g6
g7
g8
tp1138
tp1139
(I14
(I2
I0
I1
I1
g6
g7
g8
tp1140
tp1141
(I15
(I3
I0
I1
I1
g6
g7
g8
tp1142
tp1143
(I16
(I4
I0
I1
I1
g6
g7
g8
tp1144
tp1145
(I17
(I1
I1
I1
I1
g262
g7
g8
tp1146
tp1147
(I18
(I3
I1
I1
I1
g265
g7
g8
tp1148
tp1149
(I19
(I1
I3
I1
I1
g30
g7
g8
tp1150
tp1151
tp1152
I-1
tp1153
a(((I0
(I0
I4
I1
I1
g6
g7
g8
tp1154
tp1155
(I1
(I1
I4
I1
I1
g6
g7
g8
tp1156
tp1157
(I2
(I2
I4
I1
I1
g6
g7
g8
tp1158
tp1159
(I3
(I3
I4
I1
I1
g6
g7
g8
tp1160
tp1161
(I4
(I4
I4
I1
I1
g6
g7
g8
tp1162
tp1163
(I5
(I0
I3
I1
I1
g6
g7
g8
tp1164
tp1165
(I6
(I4
I3
I1
I1
g6
g7
g8
tp1166
tp1167
(I7
(I0
I2
I1
I1
g6
g7
g8
tp1168
tp1169
(I8
(I3
I2
I1
I1
g6
g7
g8
tp1170
tp1171
(I9
(I4
I2
I1
I1
g6
g7
g8
tp1172
tp1173
(I10
(I0
I1
I1
I1
g6
g7
g8
tp1174
tp1175
(I11
(I4
I1
I1
I1
g6
g7
g8
tp1176
tp1177
(I12
(I0
I0
I1
I1
g6
g7
g8
tp1178
tp1179
(I13
(I1
I0
I1
I1
g6
g7
g8
tp1180
tp1181
(I14
(I2
I0
I1
I1
g6
g7
g8
tp1182
tp1183
(I15
(I3
I0
I1
I1
g6
g7
g8
tp1184
tp1185
(I16
(I4
I0
I1
I1
g6
g7
g8
tp1186
tp1187
(I17
(I1
I1
I1
I1
g262
g7
g8
tp1188
tp1189
(I18
(I3
I1
I1
I1
g265
g7
g8
tp1190
tp1191
(I19
(I2
I2
I1
I1
g30
g7
g8
tp1192
tp1193
tp1194
S'r'
p1195
((I0
(I0
I4
I1
I1
g6
g7
g8
tp1196
tp1197
(I1
(I1
I4
I1
I1
g6
g7
g8
tp1198
tp1199
(I2
(I2
I4
I1
I1
g6
g7
g8
tp1200
tp1201
(I3
(I3
I4
I1
I1
g6
g7
g8
tp1202
tp1203
(I4
(I4
I4
I1
I1
g6
g7
g8
tp1204
tp1205
(I5
(I0
I3
I1
I1
g6
g7
g8
tp1206
tp1207
(I6
(I4
I3
I1
I1
g6
g7
g8
tp1208
tp1209
(I7
(I0
I2
I1
I1
g6
g7
g8
tp1210
tp1211
(I8
(I3
I2
I1
I1
g6
g7
g8
tp1212
tp1213
(I9
(I4
I2
I1
I1
g6
g7
g8
tp1214
tp1215
(I10
(I0
I1
I1
I1
g6
g7
g8
tp1216
tp1217
(I11
(I4
I1
I1
I1
g6
g7
g8
tp1218
tp1219
(I12
(I0
I0
I1
I1
g6
g7
g8
tp1220
tp1221
(I13
(I1
I0
I1
I1
g6
g7
g8
tp1222
tp1223
(I14
(I2
I0
I1
I1
g6
g7
g8
tp1224
tp1225
(I15
(I3
I0
I1
I1
g6
g7
g8
tp1226
tp1227
(I16
(I4
I0
I1
I1
g6
g7
g8
tp1228
tp1229
(I17
(I1
I1
I1
I1
g262
g7
g8
tp1230
tp1231
(I18
(I3
I1
I1
I1
g265
g7
g8
tp1232
tp1233
(I19
(I2
I2
I1
I1
g30
g7
g8
tp1234
tp1235
tp1236
I-1
tp1237
a(((I0
(I0
I4
I1
I1
g6
g7
g8
tp1238
tp1239
(I1
(I1
I4
I1
I1
g6
g7
g8
tp1240
tp1241
(I2
(I2
I4
I1
I1
g6
g7
g8
tp1242
tp1243
(I3
(I3
I4
I1
I1
g6
g7
g8
tp1244
tp1245
(I4
(I4
I4
I1
I1
g6
g7
g8
tp1246
tp1247
(I5
(I0
I3
I1
I1
g6
g7
g8
tp1248
tp1249
(I6
(I4
I3
I1
I1
g6
g7
g8
tp1250
tp1251
(I7
(I0
I2
I1
I1
g6
g7
g8
tp1252
tp1253
(I8
(I3
I2
I1
I1
g6
g7
g8
tp1254
tp1255
(I9
(I4
I2
I1
I1
g6
g7
g8
tp1256
tp1257
(I10
(I0
I1
I1
I1
g6
g7
g8
tp1258
tp1259
(I11
(I4
I1
I1
I1
g6
g7
g8
tp1260
tp1261
(I12
(I0
I0
I1
I1
g6
g7
g8
tp1262
tp1263
(I13
(I1
I0
I1
I1
g6
g7
g8
tp1264
tp1265
(I14
(I2
I0
I1
I1
g6
g7
g8
tp1266
tp1267
(I15
(I3
I0
I1
I1
g6
g7
g8
tp1268
tp1269
(I16
(I4
I0
I1
I1
g6
g7
g8
tp1270
tp1271
(I17
(I1
I1
I1
I1
g262
g7
g8
tp1272
tp1273
(I18
(I3
I1
I1
I1
g265
g7
g8
tp1274
tp1275
(I19
(I1
I3
I1
I1
g30
g7
g8
tp1276
tp1277
tp1278
S'd'
p1279
((I0
(I0
I4
I1
I1
g6
g7
g8
tp1280
tp1281
(I1
(I1
I4
I1
I1
g6
g7
g8
tp1282
tp1283
(I2
(I2
I4
I1
I1
g6
g7
g8
tp1284
tp1285
(I3
(I3
I4
I1
I1
g6
g7
g8
tp1286
tp1287
(I4
(I4
I4
I1
I1
g6
g7
g8
tp1288
tp1289
(I5
(I0
I3
I1
I1
g6
g7
g8
tp1290
tp1291
(I6
(I4
I3
I1
I1
g6
g7
g8
tp1292
tp1293
(I7
(I0
I2
I1
I1
g6
g7
g8
tp1294
tp1295
(I8
(I3
I2
I1
I1
g6
g7
g8
tp1296
tp1297
(I9
(I4
I2
I1
I1
g6
g7
g8
tp1298
tp1299
(I10
(I0
I1
I1
I1
g6
g7
g8
tp1300
tp1301
(I11
(I4
I1
I1
I1
g6
g7
g8
tp1302
tp1303
(I12
(I0
I0
I1
I1
g6
g7
g8
tp1304
tp1305
(I13
(I1
I0
I1
I1
g6
g7
g8
tp1306
tp1307
(I14
(I2
I0
I1
I1
g6
g7
g8
tp1308
tp1309
(I15
(I3
I0
I1
I1
g6
g7
g8
tp1310
tp1311
(I16
(I4
I0
I1
I1
g6
g7
g8
tp1312
tp1313
(I17
(I1
I1
I1
I1
g262
g7
g8
tp1314
tp1315
(I18
(I3
I1
I1
I1
g265
g7
g8
tp1316
tp1317
(I19
(I1
I2
I1
I1
g30
g7
g8
tp1318
tp1319
tp1320
I-1
tp1321
a(((I0
(I0
I4
I1
I1
g6
g7
g8
tp1322
tp1323
(I1
(I1
I4
I1
I1
g6
g7
g8
tp1324
tp1325
(I2
(I2
I4
I1
I1
g6
g7
g8
tp1326
tp1327
(I3
(I3
I4
I1
I1
g6
g7
g8
tp1328
tp1329
(I4
(I4
I4
I1
I1
g6
g7
g8
tp1330
tp1331
(I5
(I0
I3
I1
I1
g6
g7
g8
tp1332
tp1333
(I6
(I4
I3
I1
I1
g6
g7
g8
tp1334
tp1335
(I7
(I0
I2
I1
I1
g6
g7
g8
tp1336
tp1337
(I8
(I3
I2
I1
I1
g6
g7
g8
tp1338
tp1339
(I9
(I4
I2
I1
I1
g6
g7
g8
tp1340
tp1341
(I10
(I0
I1
I1
I1
g6
g7
g8
tp1342
tp1343
(I11
(I4
I1
I1
I1
g6
g7
g8
tp1344
tp1345
(I12
(I0
I0
I1
I1
g6
g7
g8
tp1346
tp1347
(I13
(I1
I0
I1
I1
g6
g7
g8
tp1348
tp1349
(I14
(I2
I0
I1
I1
g6
g7
g8
tp1350
tp1351
(I15
(I3
I0
I1
I1
g6
g7
g8
tp1352
tp1353
(I16
(I4
I0
I1
I1
g6
g7
g8
tp1354
tp1355
(I17
(I1
I1
I1
I1
g262
g7
g8
tp1356
tp1357
(I18
(I3
I1
I1
I1
g265
g7
g8
tp1358
tp1359
(I19
(I2
I1
I1
I1
g30
g7
g8
tp1360
tp1361
tp1362
S'r'
p1363
((I0
(I0
I4
I1
I1
g6
g7
g8
tp1364
tp1365
(I1
(I1
I4
I1
I1
g6
g7
g8
tp1366
tp1367
(I2
(I2
I4
I1
I1
g6
g7
g8
tp1368
tp1369
(I3
(I3
I4
I1
I1
g6
g7
g8
tp1370
tp1371
(I4
(I4
I4
I1
I1
g6
g7
g8
tp1372
tp1373
(I5
(I0
I3
I1
I1
g6
g7
g8
tp1374
tp1375
(I6
(I4
I3
I1
I1
g6
g7
g8
tp1376
tp1377
(I7
(I0
I2
I1
I1
g6
g7
g8
tp1378
tp1379
(I8
(I3
I2
I1
I1
g6
g7
g8
tp1380
tp1381
(I9
(I4
I2
I1
I1
g6
g7
g8
tp1382
tp1383
(I10
(I0
I1
I1
I1
g6
g7
g8
tp1384
tp1385
(I11
(I4
I1
I1
I1
g6
g7
g8
tp1386
tp1387
(I12
(I0
I0
I1
I1
g6
g7
g8
tp1388
tp1389
(I13
(I1
I0
I1
I1
g6
g7
g8
tp1390
tp1391
(I14
(I2
I0
I1
I1
g6
g7
g8
tp1392
tp1393
(I15
(I3
I0
I1
I1
g6
g7
g8
tp1394
tp1395
(I16
(I4
I0
I1
I1
g6
g7
g8
tp1396
tp1397
(I17
(I1
I1
I1
I1
g262
g7
g8
tp1398
tp1399
(I18
(I3
I1
I1
I1
g265
g7
g8
tp1400
tp1401
(I19
(I2
I1
I1
I1
g30
g7
g8
tp1402
tp1403
tp1404
I10
tp1405
a(((I0
(I0
I4
I1
I1
g6
g7
g8
tp1406
tp1407
(I1
(I1
I4
I1
I1
g6
g7
g8
tp1408
tp1409
(I2
(I2
I4
I1
I1
g6
g7
g8
tp1410
tp1411
(I3
(I3
I4
I1
I1
g6
g7
g8
tp1412
tp1413
(I4
(I4
I4
I1
I1
g6
g7
g8
tp1414
tp1415
(I5
(I0
I3
I1
I1
g6
g7
g8
tp1416
tp1417
(I6
(I4
I3
I1
I1
g6
g7
g8
tp1418
tp1419
(I7
(I0
I2
I1
I1
g6
g7
g8
tp1420
tp1421
(I8
(I3
I2
I1
I1
g6
g7
g8
tp1422
tp1423
(I9
(I4
I2
I1
I1
g6
g7
g8
tp1424
tp1425
(I10
(I0
I1
I1
I1
g6
g7
g8
tp1426
tp1427
(I11
(I4
I1
I1
I1
g6
g7
g8
tp1428
tp1429
(I12
(I0
I0
I1
I1
g6
g7
g8
tp1430
tp1431
(I13
(I1
I0
I1
I1
g6
g7
g8
tp1432
tp1433
(I14
(I2
I0
I1
I1
g6
g7
g8
tp1434
tp1435
(I15
(I3
I0
I1
I1
g6
g7
g8
tp1436
tp1437
(I16
(I4
I0
I1
I1
g6
g7
g8
tp1438
tp1439
(I17
(I1
I1
I1
I1
g262
g7
g8
tp1440
tp1441
(I18
(I3
I1
I1
I1
g265
g7
g8
tp1442
tp1443
(I19
(I2
I3
I1
I1
g30
g7
g8
tp1444
tp1445
tp1446
S'd'
p1447
((I0
(I0
I4
I1
I1
g6
g7
g8
tp1448
tp1449
(I1
(I1
I4
I1
I1
g6
g7
g8
tp1450
tp1451
(I2
(I2
I4
I1
I1
g6
g7
g8
tp1452
tp1453
(I3
(I3
I4
I1
I1
g6
g7
g8
tp1454
tp1455
(I4
(I4
I4
I1
I1
g6
g7
g8
tp1456
tp1457
(I5
(I0
I3
I1
I1
g6
g7
g8
tp1458
tp1459
(I6
(I4
I3
I1
I1
g6
g7
g8
tp1460
tp1461
(I7
(I0
I2
I1
I1
g6
g7
g8
tp1462
tp1463
(I8
(I3
I2
I1
I1
g6
g7
g8
tp1464
tp1465
(I9
(I4
I2
I1
I1
g6
g7
g8
tp1466
tp1467
(I10
(I0
I1
I1
I1
g6
g7
g8
tp1468
tp1469
(I11
(I4
I1
I1
I1
g6
g7
g8
tp1470
tp1471
(I12
(I0
I0
I1
I1
g6
g7
g8
tp1472
tp1473
(I13
(I1
I0
I1
I1
g6
g7
g8
tp1474
tp1475
(I14
(I2
I0
I1
I1
g6
g7
g8
tp1476
tp1477
(I15
(I3
I0
I1
I1
g6
g7
g8
tp1478
tp1479
(I16
(I4
I0
I1
I1
g6
g7
g8
tp1480
tp1481
(I17
(I1
I1
I1
I1
g262
g7
g8
tp1482
tp1483
(I18
(I3
I1
I1
I1
g265
g7
g8
tp1484
tp1485
(I19
(I2
I2
I1
I1
g30
g7
g8
tp1486
tp1487
tp1488
I-1
tp1489
a(((I0
(I0
I4
I1
I1
g6
g7
g8
tp1490
tp1491
(I1
(I1
I4
I1
I1
g6
g7
g8
tp1492
tp1493
(I2
(I2
I4
I1
I1
g6
g7
g8
tp1494
tp1495
(I3
(I3
I4
I1
I1
g6
g7
g8
tp1496
tp1497
(I4
(I4
I4
I1
I1
g6
g7
g8
tp1498
tp1499
(I5
(I0
I3
I1
I1
g6
g7
g8
tp1500
tp1501
(I6
(I4
I3
I1
I1
g6
g7
g8
tp1502
tp1503
(I7
(I0
I2
I1
I1
g6
g7
g8
tp1504
tp1505
(I8
(I3
I2
I1
I1
g6
g7
g8
tp1506
tp1507
(I9
(I4
I2
I1
I1
g6
g7
g8
tp1508
tp1509
(I10
(I0
I1
I1
I1
g6
g7
g8
tp1510
tp1511
(I11
(I4
I1
I1
I1
g6
g7
g8
tp1512
tp1513
(I12
(I0
I0
I1
I1
g6
g7
g8
tp1514
tp1515
(I13
(I1
I0
I1
I1
g6
g7
g8
tp1516
tp1517
(I14
(I2
I0
I1
I1
g6
g7
g8
tp1518
tp1519
(I15
(I3
I0
I1
I1
g6
g7
g8
tp1520
tp1521
(I16
(I4
I0
I1
I1
g6
g7
g8
tp1522
tp1523
(I17
(I1
I1
I1
I1
g262
g7
g8
tp1524
tp1525
(I18
(I3
I1
I1
I1
g265
g7
g8
tp1526
tp1527
(I19
(I3
I3
I1
I1
g30
g7
g8
tp1528
tp1529
tp1530
S'l'
p1531
((I0
(I0
I4
I1
I1
g6
g7
g8
tp1532
tp1533
(I1
(I1
I4
I1
I1
g6
g7
g8
tp1534
tp1535
(I2
(I2
I4
I1
I1
g6
g7
g8
tp1536
tp1537
(I3
(I3
I4
I1
I1
g6
g7
g8
tp1538
tp1539
(I4
(I4
I4
I1
I1
g6
g7
g8
tp1540
tp1541
(I5
(I0
I3
I1
I1
g6
g7
g8
tp1542
tp1543
(I6
(I4
I3
I1
I1
g6
g7
g8
tp1544
tp1545
(I7
(I0
I2
I1
I1
g6
g7
g8
tp1546
tp1547
(I8
(I3
I2
I1
I1
g6
g7
g8
tp1548
tp1549
(I9
(I4
I2
I1
I1
g6
g7
g8
tp1550
tp1551
(I10
(I0
I1
I1
I1
g6
g7
g8
tp1552
tp1553
(I11
(I4
I1
I1
I1
g6
g7
g8
tp1554
tp1555
(I12
(I0
I0
I1
I1
g6
g7
g8
tp1556
tp1557
(I13
(I1
I0
I1
I1
g6
g7
g8
tp1558
tp1559
(I14
(I2
I0
I1
I1
g6
g7
g8
tp1560
tp1561
(I15
(I3
I0
I1
I1
g6
g7
g8
tp1562
tp1563
(I16
(I4
I0
I1
I1
g6
g7
g8
tp1564
tp1565
(I17
(I1
I1
I1
I1
g262
g7
g8
tp1566
tp1567
(I18
(I3
I1
I1
I1
g265
g7
g8
tp1568
tp1569
(I19
(I2
I3
I1
I1
g30
g7
g8
tp1570
tp1571
tp1572
I-1
tp1573
atp1574
Rp1575
sS'obsChanges'
p1576
g226
((lp1577
I19
atp1578
Rp1579
sS'data'
p1580
(lp1581
(dp1582
g35
(lp1583
(lp1584
(lp1585
S'centre'
p1586
ag1586
aI1
aI1
ag30
ag7
ag8
aa(lp1587
S'left'
p1588
aS'above'
p1589
aI1
aI1
ag6
ag7
ag8
aa(lp1590
NaNaNaNaNaNaS'yes'
p1591
aa(lp1592
NaNaNaNaNaNag1591
aa(lp1593
NaNaNaNaNaNag1591
aa(lp1594
NaNaNaNaNaNag1591
aa(lp1595
g1586
aS'below'
p1596
aI1
aI1
ag262
ag7
ag8
aa(lp1597
g1588
ag1596
aI1
aI1
ag6
ag7
ag8
aa(lp1598
g1588
ag1586
aI1
aI1
ag6
ag7
ag8
aag607
aa(lp1599
(lp1600
g1586
ag1586
aI1
aI1
ag30
ag7
ag8
aa(lp1601
g1588
ag1589
aI1
aI1
ag6
ag7
ag8
aa(lp1602
g1586
ag1589
aI1
aI1
ag6
ag7
ag8
aa(lp1603
S'right'
p1604
ag1589
aI1
aI1
ag6
ag7
ag8
aa(lp1605
NaNaNaNaNaNag1591
aa(lp1606
NaNaNaNaNaNag1591
aa(lp1607
NaNaNaNaNaNag1591
aa(lp1608
g1588
ag1596
aI1
aI1
ag6
ag7
ag8
aa(lp1609
g1588
ag1586
aI1
aI1
ag6
ag7
ag8
aag943
aa(lp1610
(lp1611
g1586
ag1586
aI1
aI1
ag30
ag7
ag8
aa(lp1612
g1588
ag1589
aI1
aI1
ag6
ag7
ag8
aa(lp1613
g1586
ag1589
aI1
aI1
ag6
ag7
ag8
aa(lp1614
g1604
ag1589
aI1
aI1
ag6
ag7
ag8
aa(lp1615
NaNaNaNaNaNag1591
aa(lp1616
g1604
ag1596
aI1
aI1
ag6
ag7
ag8
aa(lp1617
NaNaNaNaNaNag1591
aa(lp1618
NaNaNaNaNaNag1591
aa(lp1619
NaNaNaNaNaNag1591
aag355
aasg37
(lp1620
(lp1621
(lp1622
g1586
ag1586
aI1
aI1
ag30
ag7
ag8
aa(lp1623
NaNaNaNaNaNag1591
aa(lp1624
NaNaNaNaNaNag1591
aa(lp1625
NaNaNaNaNaNag1591
aa(lp1626
g1604
ag1586
aI1
aI1
ag6
ag7
ag8
aa(lp1627
g1604
ag1596
aI1
aI1
ag265
ag7
ag8
aa(lp1628
NaNaNaNaNaNag1591
aa(lp1629
g1588
ag1596
aI1
aI1
ag262
ag7
ag8
aa(lp1630
NaNaNaNaNaNag1591
aag775
aa(lp1631
(lp1632
g1586
ag1586
aI1
aI1
ag30
ag7
ag8
aa(lp1633
NaNaNaNaNaNag1591
aa(lp1634
NaNaNaNaNaNag1591
aa(lp1635
NaNaNaNaNaNag1591
aa(lp1636
g1604
ag1586
aI1
aI1
ag6
ag7
ag8
aa(lp1637
g1604
ag1596
aI1
aI1
ag265
ag7
ag8
aa(lp1638
NaNaNaNaNaNag1591
aa(lp1639
g1588
ag1596
aI1
aI1
ag262
ag7
ag8
aa(lp1640
NaNaNaNaNaNag1591
aag1195
aa(lp1641
(lp1642
g1586
ag1586
aI1
aI1
ag30
ag7
ag8
aa(lp1643
NaNaNaNaNaNag1591
aa(lp1644
NaNaNaNaNaNag1591
aa(lp1645
NaNaNaNaNaNag1591
aa(lp1646
g1604
ag1586
aI1
aI1
ag6
ag7
ag8
aa(lp1647
g1604
ag1596
aI1
aI1
ag265
ag7
ag8
aa(lp1648
NaNaNaNaNaNag1591
aa(lp1649
g1588
ag1596
aI1
aI1
ag262
ag7
ag8
aa(lp1650
NaNaNaNaNaNag1591
aag1027
aa(lp1651
(lp1652
g1586
ag1586
aI1
aI1
ag30
ag7
ag8
aa(lp1653
NaNaNaNaNaNag1591
aa(lp1654
NaNaNaNaNaNag1591
aa(lp1655
g1604
ag1589
aI1
aI1
ag6
ag7
ag8
aa(lp1656
g1604
ag1586
aI1
aI1
ag265
ag7
ag8
aa(lp1657
g1604
ag1596
aI1
aI1
ag6
ag7
ag8
aa(lp1658
g1586
ag1596
aI1
aI1
ag6
ag7
ag8
aa(lp1659
g1588
ag1596
aI1
aI1
ag6
ag7
ag8
aa(lp1660
g1588
ag1586
aI1
aI1
ag262
ag7
ag8
aag859
aa(lp1661
(lp1662
g1586
ag1586
aI1
aI1
ag30
ag7
ag8
aa(lp1663
NaNaNaNaNaNag1591
aa(lp1664
NaNaNaNaNaNag1591
aa(lp1665
g1604
ag1589
aI1
aI1
ag6
ag7
ag8
aa(lp1666
g1604
ag1586
aI1
aI1
ag265
ag7
ag8
aa(lp1667
g1604
ag1596
aI1
aI1
ag6
ag7
ag8
aa(lp1668
g1586
ag1596
aI1
aI1
ag6
ag7
ag8
aa(lp1669
g1588
ag1596
aI1
aI1
ag6
ag7
ag8
aa(lp1670
g1588
ag1586
aI1
aI1
ag262
ag7
ag8
aag1363
aa(lp1671
(lp1672
g1586
ag1586
aI1
aI1
ag30
ag7
ag8
aa(lp1673
NaNaNaNaNaNag1591
aa(lp1674
NaNaNaNaNaNag1591
aa(lp1675
g1604
ag1589
aI1
aI1
ag6
ag7
ag8
aa(lp1676
g1604
ag1586
aI1
aI1
ag265
ag7
ag8
aa(lp1677
g1604
ag1596
aI1
aI1
ag6
ag7
ag8
aa(lp1678
g1586
ag1596
aI1
aI1
ag6
ag7
ag8
aa(lp1679
g1588
ag1596
aI1
aI1
ag6
ag7
ag8
aa(lp1680
g1588
ag1586
aI1
aI1
ag262
ag7
ag8
aag691
aa(lp1681
(lp1682
g1586
ag1586
aI1
aI1
ag30
ag7
ag8
aa(lp1683
g1588
ag1589
aI1
aI1
ag6
ag7
ag8
aa(lp1684
g1586
ag1589
aI1
aI1
ag6
ag7
ag8
aa(lp1685
g1604
ag1589
aI1
aI1
ag6
ag7
ag8
aa(lp1686
NaNaNaNaNaNag1591
aa(lp1687
NaNaNaNaNaNag1591
aa(lp1688
NaNaNaNaNaNag1591
aa(lp1689
g1588
ag1596
aI1
aI1
ag6
ag7
ag8
aa(lp1690
g1588
ag1586
aI1
aI1
ag6
ag7
ag8
aag1279
aa(lp1691
(lp1692
g1586
ag1586
aI1
aI1
ag30
ag7
ag8
aa(lp1693
g1588
ag1589
aI1
aI1
ag6
ag7
ag8
aa(lp1694
g1586
ag1589
aI1
aI1
ag6
ag7
ag8
aa(lp1695
g1604
ag1589
aI1
aI1
ag6
ag7
ag8
aa(lp1696
NaNaNaNaNaNag1591
aa(lp1697
NaNaNaNaNaNag1591
aa(lp1698
NaNaNaNaNaNag1591
aa(lp1699
g1588
ag1596
aI1
aI1
ag6
ag7
ag8
aa(lp1700
g1588
ag1586
aI1
aI1
ag6
ag7
ag8
aag1111
aa(lp1701
(lp1702
g1586
ag1586
aI1
aI1
ag30
ag7
ag8
aa(lp1703
g1588
ag1589
aI1
aI1
ag6
ag7
ag8
aa(lp1704
g1586
ag1589
aI1
aI1
ag6
ag7
ag8
aa(lp1705
g1604
ag1589
aI1
aI1
ag6
ag7
ag8
aa(lp1706
NaNaNaNaNaNag1591
aa(lp1707
g1604
ag1596
aI1
aI1
ag6
ag7
ag8
aa(lp1708
NaNaNaNaNaNag1591
aa(lp1709
NaNaNaNaNaNag1591
aa(lp1710
NaNaNaNaNaNag1591
aag1447
aa(lp1711
(lp1712
g1586
ag1586
aI1
aI1
ag30
ag7
ag8
aa(lp1713
g1588
ag1589
aI1
aI1
ag6
ag7
ag8
aa(lp1714
g1586
ag1589
aI1
aI1
ag6
ag7
ag8
aa(lp1715
g1604
ag1589
aI1
aI1
ag6
ag7
ag8
aa(lp1716
NaNaNaNaNaNag1591
aa(lp1717
g1604
ag1596
aI1
aI1
ag6
ag7
ag8
aa(lp1718
NaNaNaNaNaNag1591
aa(lp1719
NaNaNaNaNaNag1591
aa(lp1720
NaNaNaNaNaNag1591
aag271
aa(lp1721
(lp1722
g1586
ag1586
aI1
aI1
ag30
ag7
ag8
aa(lp1723
g1588
ag1589
aI1
aI1
ag6
ag7
ag8
aa(lp1724
g1586
ag1589
aI1
aI1
ag6
ag7
ag8
aa(lp1725
g1604
ag1589
aI1
aI1
ag6
ag7
ag8
aa(lp1726
g1604
ag1586
aI1
aI1
ag6
ag7
ag8
aa(lp1727
g1604
ag1596
aI1
aI1
ag6
ag7
ag8
aa(lp1728
g1586
ag1596
aI1
aI1
ag6
ag7
ag8
aa(lp1729
NaNaNaNaNaNag1591
aa(lp1730
NaNaNaNaNaNag1591
aag523
aa(lp1731
(lp1732
g1586
ag1586
aI1
aI1
ag265
ag7
ag8
aa(lp1733
NaNaNaNaNaNag1591
aa(lp1734
g1586
ag1589
aI1
aI1
ag6
ag7
ag8
aa(lp1735
g1604
ag1589
aI1
aI1
ag6
ag7
ag8
aa(lp1736
g1604
ag1586
aI1
aI1
ag6
ag7
ag8
aa(lp1737
g1604
ag1596
aI1
aI1
ag6
ag7
ag8
aa(lp1738
g1586
ag1596
aI1
aI1
ag6
ag7
ag8
aa(lp1739
g1588
ag1596
aI1
aI1
ag6
ag7
ag8
aa(lp1740
NaNaNaNaNaNag1591
aag1447
aa(lp1741
(lp1742
g1586
ag1586
aI1
aI1
ag265
ag7
ag8
aa(lp1743
NaNaNaNaNaNag1591
aa(lp1744
g1586
ag1589
aI1
aI1
ag6
ag7
ag8
aa(lp1745
g1604
ag1589
aI1
aI1
ag6
ag7
ag8
aa(lp1746
g1604
ag1586
aI1
aI1
ag6
ag7
ag8
aa(lp1747
g1604
ag1596
aI1
aI1
ag6
ag7
ag8
aa(lp1748
g1586
ag1596
aI1
aI1
ag6
ag7
ag8
aa(lp1749
g1588
ag1596
aI1
aI1
ag6
ag7
ag8
aa(lp1750
NaNaNaNaNaNag1591
aag1531
aa(lp1751
(lp1752
g1586
ag1586
aI1
aI1
ag265
ag7
ag8
aa(lp1753
NaNaNaNaNaNag1591
aa(lp1754
g1586
ag1589
aI1
aI1
ag6
ag7
ag8
aa(lp1755
g1604
ag1589
aI1
aI1
ag6
ag7
ag8
aa(lp1756
g1604
ag1586
aI1
aI1
ag6
ag7
ag8
aa(lp1757
g1604
ag1596
aI1
aI1
ag6
ag7
ag8
aa(lp1758
g1586
ag1596
aI1
aI1
ag6
ag7
ag8
aa(lp1759
g1588
ag1596
aI1
aI1
ag6
ag7
ag8
aa(lp1760
NaNaNaNaNaNag1591
aag943
aa(lp1761
(lp1762
g1586
ag1586
aI1
aI1
ag265
ag7
ag8
aa(lp1763
NaNaNaNaNaNag1591
aa(lp1764
g1586
ag1589
aI1
aI1
ag6
ag7
ag8
aa(lp1765
g1604
ag1589
aI1
aI1
ag6
ag7
ag8
aa(lp1766
g1604
ag1586
aI1
aI1
ag6
ag7
ag8
aa(lp1767
g1604
ag1596
aI1
aI1
ag6
ag7
ag8
aa(lp1768
g1586
ag1596
aI1
aI1
ag6
ag7
ag8
aa(lp1769
g1588
ag1596
aI1
aI1
ag6
ag7
ag8
aa(lp1770
NaNaNaNaNaNag1591
aag271
aa(lp1771
(lp1772
g1586
ag1586
aI1
aI1
ag265
ag7
ag8
aa(lp1773
NaNaNaNaNaNag1591
aa(lp1774
g1586
ag1589
aI1
aI1
ag6
ag7
ag8
aa(lp1775
g1604
ag1589
aI1
aI1
ag6
ag7
ag8
aa(lp1776
g1604
ag1586
aI1
aI1
ag6
ag7
ag8
aa(lp1777
g1604
ag1596
aI1
aI1
ag6
ag7
ag8
aa(lp1778
g1586
ag1596
aI1
aI1
ag6
ag7
ag8
aa(lp1779
g1588
ag1596
aI1
aI1
ag6
ag7
ag8
aa(lp1780
g1588
ag1586
aI1
aI1
ag30
ag7
ag8
aag859
aa(lp1781
(lp1782
g1586
ag1586
aI1
aI1
ag265
ag7
ag8
aa(lp1783
NaNaNaNaNaNag1591
aa(lp1784
g1586
ag1589
aI1
aI1
ag6
ag7
ag8
aa(lp1785
g1604
ag1589
aI1
aI1
ag6
ag7
ag8
aa(lp1786
g1604
ag1586
aI1
aI1
ag6
ag7
ag8
aa(lp1787
g1604
ag1596
aI1
aI1
ag6
ag7
ag8
aa(lp1788
g1586
ag1596
aI1
aI1
ag6
ag7
ag8
aa(lp1789
g1588
ag1596
aI1
aI1
ag6
ag7
ag8
aa(lp1790
g1588
ag1586
aI1
aI1
ag30
ag7
ag8
aag1363
aa(lp1791
(lp1792
g1586
ag1586
aI1
aI1
ag265
ag7
ag8
aa(lp1793
NaNaNaNaNaNag1591
aa(lp1794
g1586
ag1589
aI1
aI1
ag6
ag7
ag8
aa(lp1795
g1604
ag1589
aI1
aI1
ag6
ag7
ag8
aa(lp1796
g1604
ag1586
aI1
aI1
ag6
ag7
ag8
aa(lp1797
g1604
ag1596
aI1
aI1
ag6
ag7
ag8
aa(lp1798
g1586
ag1596
aI1
aI1
ag6
ag7
ag8
aa(lp1799
g1588
ag1596
aI1
aI1
ag6
ag7
ag8
aa(lp1800
g1588
ag1586
aI1
aI1
ag30
ag7
ag8
aag691
aa(lp1801
(lp1802
g1586
ag1586
aI1
aI1
ag265
ag7
ag8
aa(lp1803
g1588
ag1589
aI1
aI1
ag30
ag7
ag8
aa(lp1804
g1586
ag1589
aI1
aI1
ag6
ag7
ag8
aa(lp1805
g1604
ag1589
aI1
aI1
ag6
ag7
ag8
aa(lp1806
g1604
ag1586
aI1
aI1
ag6
ag7
ag8
aa(lp1807
g1604
ag1596
aI1
aI1
ag6
ag7
ag8
aa(lp1808
g1586
ag1596
aI1
aI1
ag6
ag7
ag8
aa(lp1809
g1588
ag1596
aI1
aI1
ag6
ag7
ag8
aa(lp1810
NaNaNaNaNaNag1591
aag775
aa(lp1811
(lp1812
g1586
ag1586
aI1
aI1
ag265
ag7
ag8
aa(lp1813
g1588
ag1589
aI1
aI1
ag30
ag7
ag8
aa(lp1814
g1586
ag1589
aI1
aI1
ag6
ag7
ag8
aa(lp1815
g1604
ag1589
aI1
aI1
ag6
ag7
ag8
aa(lp1816
g1604
ag1586
aI1
aI1
ag6
ag7
ag8
aa(lp1817
g1604
ag1596
aI1
aI1
ag6
ag7
ag8
aa(lp1818
g1586
ag1596
aI1
aI1
ag6
ag7
ag8
aa(lp1819
g1588
ag1596
aI1
aI1
ag6
ag7
ag8
aa(lp1820
NaNaNaNaNaNag1591
aag1195
aa(lp1821
(lp1822
g1586
ag1586
aI1
aI1
ag265
ag7
ag8
aa(lp1823
g1588
ag1589
aI1
aI1
ag30
ag7
ag8
aa(lp1824
g1586
ag1589
aI1
aI1
ag6
ag7
ag8
aa(lp1825
g1604
ag1589
aI1
aI1
ag6
ag7
ag8
aa(lp1826
g1604
ag1586
aI1
aI1
ag6
ag7
ag8
aa(lp1827
g1604
ag1596
aI1
aI1
ag6
ag7
ag8
aa(lp1828
g1586
ag1596
aI1
aI1
ag6
ag7
ag8
aa(lp1829
g1588
ag1596
aI1
aI1
ag6
ag7
ag8
aa(lp1830
NaNaNaNaNaNag1591
aag1027
aa(lp1831
(lp1832
g1586
ag1586
aI1
aI1
ag262
ag7
ag8
aa(lp1833
g1588
ag1589
aI1
aI1
ag6
ag7
ag8
aa(lp1834
NaNaNaNaNaNag1591
aa(lp1835
NaNaNaNaNaNag1591
aa(lp1836
NaNaNaNaNaNag1591
aa(lp1837
g1604
ag1596
aI1
aI1
ag6
ag7
ag8
aa(lp1838
g1586
ag1596
aI1
aI1
ag6
ag7
ag8
aa(lp1839
g1588
ag1596
aI1
aI1
ag6
ag7
ag8
aa(lp1840
g1588
ag1586
aI1
aI1
ag6
ag7
ag8
aag1447
aa(lp1841
(lp1842
g1586
ag1586
aI1
aI1
ag262
ag7
ag8
aa(lp1843
g1588
ag1589
aI1
aI1
ag6
ag7
ag8
aa(lp1844
NaNaNaNaNaNag1591
aa(lp1845
NaNaNaNaNaNag1591
aa(lp1846
NaNaNaNaNaNag1591
aa(lp1847
g1604
ag1596
aI1
aI1
ag6
ag7
ag8
aa(lp1848
g1586
ag1596
aI1
aI1
ag6
ag7
ag8
aa(lp1849
g1588
ag1596
aI1
aI1
ag6
ag7
ag8
aa(lp1850
g1588
ag1586
aI1
aI1
ag6
ag7
ag8
aag1531
aa(lp1851
(lp1852
g1586
ag1586
aI1
aI1
ag262
ag7
ag8
aa(lp1853
g1588
ag1589
aI1
aI1
ag6
ag7
ag8
aa(lp1854
NaNaNaNaNaNag1591
aa(lp1855
NaNaNaNaNaNag1591
aa(lp1856
NaNaNaNaNaNag1591
aa(lp1857
g1604
ag1596
aI1
aI1
ag6
ag7
ag8
aa(lp1858
g1586
ag1596
aI1
aI1
ag6
ag7
ag8
aa(lp1859
g1588
ag1596
aI1
aI1
ag6
ag7
ag8
aa(lp1860
g1588
ag1586
aI1
aI1
ag6
ag7
ag8
aag943
aa(lp1861
(lp1862
g1586
ag1586
aI1
aI1
ag262
ag7
ag8
aa(lp1863
g1588
ag1589
aI1
aI1
ag6
ag7
ag8
aa(lp1864
NaNaNaNaNaNag1591
aa(lp1865
NaNaNaNaNaNag1591
aa(lp1866
NaNaNaNaNaNag1591
aa(lp1867
g1604
ag1596
aI1
aI1
ag6
ag7
ag8
aa(lp1868
g1586
ag1596
aI1
aI1
ag6
ag7
ag8
aa(lp1869
g1588
ag1596
aI1
aI1
ag6
ag7
ag8
aa(lp1870
g1588
ag1586
aI1
aI1
ag6
ag7
ag8
aag271
aa(lp1871
(lp1872
g1586
ag1586
aI1
aI1
ag262
ag7
ag8
aa(lp1873
g1588
ag1589
aI1
aI1
ag6
ag7
ag8
aa(lp1874
NaNaNaNaNaNag1591
aa(lp1875
NaNaNaNaNaNag1591
aa(lp1876
g1604
ag1586
aI1
aI1
ag30
ag7
ag8
aa(lp1877
g1604
ag1596
aI1
aI1
ag6
ag7
ag8
aa(lp1878
g1586
ag1596
aI1
aI1
ag6
ag7
ag8
aa(lp1879
g1588
ag1596
aI1
aI1
ag6
ag7
ag8
aa(lp1880
g1588
ag1586
aI1
aI1
ag6
ag7
ag8
aag859
aa(lp1881
(lp1882
g1586
ag1586
aI1
aI1
ag262
ag7
ag8
aa(lp1883
g1588
ag1589
aI1
aI1
ag6
ag7
ag8
aa(lp1884
NaNaNaNaNaNag1591
aa(lp1885
NaNaNaNaNaNag1591
aa(lp1886
g1604
ag1586
aI1
aI1
ag30
ag7
ag8
aa(lp1887
g1604
ag1596
aI1
aI1
ag6
ag7
ag8
aa(lp1888
g1586
ag1596
aI1
aI1
ag6
ag7
ag8
aa(lp1889
g1588
ag1596
aI1
aI1
ag6
ag7
ag8
aa(lp1890
g1588
ag1586
aI1
aI1
ag6
ag7
ag8
aag1363
aa(lp1891
(lp1892
g1586
ag1586
aI1
aI1
ag262
ag7
ag8
aa(lp1893
g1588
ag1589
aI1
aI1
ag6
ag7
ag8
aa(lp1894
NaNaNaNaNaNag1591
aa(lp1895
NaNaNaNaNaNag1591
aa(lp1896
g1604
ag1586
aI1
aI1
ag30
ag7
ag8
aa(lp1897
g1604
ag1596
aI1
aI1
ag6
ag7
ag8
aa(lp1898
g1586
ag1596
aI1
aI1
ag6
ag7
ag8
aa(lp1899
g1588
ag1596
aI1
aI1
ag6
ag7
ag8
aa(lp1900
g1588
ag1586
aI1
aI1
ag6
ag7
ag8
aag691
aa(lp1901
(lp1902
g1586
ag1586
aI1
aI1
ag262
ag7
ag8
aa(lp1903
g1588
ag1589
aI1
aI1
ag6
ag7
ag8
aa(lp1904
NaNaNaNaNaNag1591
aa(lp1905
g1604
ag1589
aI1
aI1
ag30
ag7
ag8
aa(lp1906
NaNaNaNaNaNag1591
aa(lp1907
g1604
ag1596
aI1
aI1
ag6
ag7
ag8
aa(lp1908
g1586
ag1596
aI1
aI1
ag6
ag7
ag8
aa(lp1909
g1588
ag1596
aI1
aI1
ag6
ag7
ag8
aa(lp1910
g1588
ag1586
aI1
aI1
ag6
ag7
ag8
aag775
aa(lp1911
(lp1912
g1586
ag1586
aI1
aI1
ag262
ag7
ag8
aa(lp1913
g1588
ag1589
aI1
aI1
ag6
ag7
ag8
aa(lp1914
NaNaNaNaNaNag1591
aa(lp1915
g1604
ag1589
aI1
aI1
ag30
ag7
ag8
aa(lp1916
NaNaNaNaNaNag1591
aa(lp1917
g1604
ag1596
aI1
aI1
ag6
ag7
ag8
aa(lp1918
g1586
ag1596
aI1
aI1
ag6
ag7
ag8
aa(lp1919
g1588
ag1596
aI1
aI1
ag6
ag7
ag8
aa(lp1920
g1588
ag1586
aI1
aI1
ag6
ag7
ag8
aag1195
aa(lp1921
(lp1922
g1586
ag1586
aI1
aI1
ag262
ag7
ag8
aa(lp1923
g1588
ag1589
aI1
aI1
ag6
ag7
ag8
aa(lp1924
NaNaNaNaNaNag1591
aa(lp1925
g1604
ag1589
aI1
aI1
ag30
ag7
ag8
aa(lp1926
NaNaNaNaNaNag1591
aa(lp1927
g1604
ag1596
aI1
aI1
ag6
ag7
ag8
aa(lp1928
g1586
ag1596
aI1
aI1
ag6
ag7
ag8
aa(lp1929
g1588
ag1596
aI1
aI1
ag6
ag7
ag8
aa(lp1930
g1588
ag1586
aI1
aI1
ag6
ag7
ag8
aag1027
aa(lp1931
(lp1932
g1586
ag1586
aI1
aI1
ag262
ag7
ag8
aa(lp1933
g1588
ag1589
aI1
aI1
ag6
ag7
ag8
aa(lp1934
g1586
ag1589
aI1
aI1
ag30
ag7
ag8
aa(lp1935
NaNaNaNaNaNag1591
aa(lp1936
NaNaNaNaNaNag1591
aa(lp1937
g1604
ag1596
aI1
aI1
ag6
ag7
ag8
aa(lp1938
g1586
ag1596
aI1
aI1
ag6
ag7
ag8
aa(lp1939
g1588
ag1596
aI1
aI1
ag6
ag7
ag8
aa(lp1940
g1588
ag1586
aI1
aI1
ag6
ag7
ag8
aag607
aa(lp1941
(lp1942
g1586
ag1586
aI1
aI1
ag6
ag7
ag8
aa(lp1943
NaNaNaNaNaNag1591
aa(lp1944
NaNaNaNaNaNag1591
aa(lp1945
NaNaNaNaNaNag1591
aa(lp1946
NaNaNaNaNaNag1591
aa(lp1947
NaNaNaNaNaNag1591
aa(lp1948
g1586
ag1596
aI1
aI1
ag6
ag7
ag8
aa(lp1949
NaNaNaNaNaNag1591
aa(lp1950
g1588
ag1586
aI1
aI1
ag6
ag7
ag8
aag1447
aa(lp1951
(lp1952
g1586
ag1586
aI1
aI1
ag6
ag7
ag8
aa(lp1953
NaNaNaNaNaNag1591
aa(lp1954
NaNaNaNaNaNag1591
aa(lp1955
NaNaNaNaNaNag1591
aa(lp1956
NaNaNaNaNaNag1591
aa(lp1957
NaNaNaNaNaNag1591
aa(lp1958
g1586
ag1596
aI1
aI1
ag6
ag7
ag8
aa(lp1959
NaNaNaNaNaNag1591
aa(lp1960
g1588
ag1586
aI1
aI1
ag6
ag7
ag8
aag439
aa(lp1961
(lp1962
g1586
ag1586
aI1
aI1
ag6
ag7
ag8
aa(lp1963
NaNaNaNaNaNag1591
aa(lp1964
NaNaNaNaNaNag1591
aa(lp1965
NaNaNaNaNaNag1591
aa(lp1966
NaNaNaNaNaNag1591
aa(lp1967
NaNaNaNaNaNag1591
aa(lp1968
g1586
ag1596
aI1
aI1
ag6
ag7
ag8
aa(lp1969
NaNaNaNaNaNag1591
aa(lp1970
g1588
ag1586
aI1
aI1
ag6
ag7
ag8
aag943
aa(lp1971
(lp1972
g1586
ag1586
aI1
aI1
ag6
ag7
ag8
aa(lp1973
NaNaNaNaNaNag1591
aa(lp1974
NaNaNaNaNaNag1591
aa(lp1975
NaNaNaNaNaNag1591
aa(lp1976
NaNaNaNaNaNag1591
aa(lp1977
NaNaNaNaNaNag1591
aa(lp1978
g1586
ag1596
aI1
aI1
ag6
ag7
ag8
aa(lp1979
NaNaNaNaNaNag1591
aa(lp1980
g1588
ag1586
aI1
aI1
ag6
ag7
ag8
aag1027
aa(lp1981
(lp1982
g1586
ag1586
aI1
aI1
ag6
ag7
ag8
aa(lp1983
NaNaNaNaNaNag1591
aa(lp1984
NaNaNaNaNaNag1591
aa(lp1985
NaNaNaNaNaNag1591
aa(lp1986
NaNaNaNaNaNag1591
aa(lp1987
NaNaNaNaNaNag1591
aa(lp1988
g1586
ag1596
aI1
aI1
ag6
ag7
ag8
aa(lp1989
g1588
ag1596
aI1
aI1
ag30
ag7
ag8
aa(lp1990
g1588
ag1586
aI1
aI1
ag6
ag7
ag8
aag1531
aa(lp1991
(lp1992
g1586
ag1586
aI1
aI1
ag6
ag7
ag8
aa(lp1993
NaNaNaNaNaNag1591
aa(lp1994
NaNaNaNaNaNag1591
aa(lp1995
NaNaNaNaNaNag1591
aa(lp1996
NaNaNaNaNaNag1591
aa(lp1997
NaNaNaNaNaNag1591
aa(lp1998
g1586
ag1596
aI1
aI1
ag6
ag7
ag8
aa(lp1999
g1588
ag1596
aI1
aI1
ag30
ag7
ag8
aa(lp2000
g1588
ag1586
aI1
aI1
ag6
ag7
ag8
aag523
aa(lp2001
(lp2002
g1586
ag1586
aI1
aI1
ag6
ag7
ag8
aa(lp2003
NaNaNaNaNaNag1591
aa(lp2004
NaNaNaNaNaNag1591
aa(lp2005
NaNaNaNaNaNag1591
aa(lp2006
g1604
ag1586
aI1
aI1
ag6
ag7
ag8
aa(lp2007
NaNaNaNaNaNag1591
aa(lp2008
NaNaNaNaNaNag1591
aa(lp2009
NaNaNaNaNaNag1591
aa(lp2010
g1588
ag1586
aI1
aI1
ag6
ag7
ag8
aag775
aa(lp2011
(lp2012
g1586
ag1586
aI1
aI1
ag6
ag7
ag8
aa(lp2013
NaNaNaNaNaNag1591
aa(lp2014
NaNaNaNaNaNag1591
aa(lp2015
NaNaNaNaNaNag1591
aa(lp2016
g1604
ag1586
aI1
aI1
ag6
ag7
ag8
aa(lp2017
NaNaNaNaNaNag1591
aa(lp2018
NaNaNaNaNaNag1591
aa(lp2019
NaNaNaNaNaNag1591
aa(lp2020
g1588
ag1586
aI1
aI1
ag6
ag7
ag8
aag607
aa(lp2021
(lp2022
g1586
ag1586
aI1
aI1
ag6
ag7
ag8
aa(lp2023
NaNaNaNaNaNag1591
aa(lp2024
NaNaNaNaNaNag1591
aa(lp2025
NaNaNaNaNaNag1591
aa(lp2026
g1604
ag1586
aI1
aI1
ag6
ag7
ag8
aa(lp2027
NaNaNaNaNaNag1591
aa(lp2028
NaNaNaNaNaNag1591
aa(lp2029
NaNaNaNaNaNag1591
aa(lp2030
g1588
ag1586
aI1
aI1
ag6
ag7
ag8
aag1027
aa(lp2031
(lp2032
g1586
ag1586
aI1
aI1
ag6
ag7
ag8
aa(lp2033
NaNaNaNaNaNag1591
aa(lp2034
NaNaNaNaNaNag1591
aa(lp2035
NaNaNaNaNaNag1591
aa(lp2036
g1604
ag1586
aI1
aI1
ag6
ag7
ag8
aa(lp2037
NaNaNaNaNaNag1591
aa(lp2038
NaNaNaNaNaNag1591
aa(lp2039
g1588
ag1596
aI1
aI1
ag30
ag7
ag8
aa(lp2040
g1588
ag1586
aI1
aI1
ag6
ag7
ag8
aag1279
aa(lp2041
(lp2042
g1586
ag1586
aI1
aI1
ag6
ag7
ag8
aa(lp2043
NaNaNaNaNaNag1591
aa(lp2044
NaNaNaNaNaNag1591
aa(lp2045
NaNaNaNaNaNag1591
aa(lp2046
g1604
ag1586
aI1
aI1
ag6
ag7
ag8
aa(lp2047
NaNaNaNaNaNag1591
aa(lp2048
NaNaNaNaNaNag1591
aa(lp2049
g1588
ag1596
aI1
aI1
ag30
ag7
ag8
aa(lp2050
g1588
ag1586
aI1
aI1
ag6
ag7
ag8
aag1111
aa(lp2051
(lp2052
g1586
ag1586
aI1
aI1
ag6
ag7
ag8
aa(lp2053
NaNaNaNaNaNag1591
aa(lp2054
NaNaNaNaNaNag1591
aa(lp2055
NaNaNaNaNaNag1591
aa(lp2056
g1604
ag1586
aI1
aI1
ag6
ag7
ag8
aa(lp2057
NaNaNaNaNaNag1591
aa(lp2058
NaNaNaNaNaNag1591
aa(lp2059
g1588
ag1596
aI1
aI1
ag30
ag7
ag8
aa(lp2060
g1588
ag1586
aI1
aI1
ag6
ag7
ag8
aag943
aa(lp2061
(lp2062
g1586
ag1586
aI1
aI1
ag6
ag7
ag8
aa(lp2063
NaNaNaNaNaNag1591
aa(lp2064
NaNaNaNaNaNag1591
aa(lp2065
NaNaNaNaNaNag1591
aa(lp2066
g1604
ag1586
aI1
aI1
ag6
ag7
ag8
aa(lp2067
NaNaNaNaNaNag1591
aa(lp2068
NaNaNaNaNaNag1591
aa(lp2069
g1588
ag1596
aI1
aI1
ag6
ag7
ag8
aa(lp2070
g1588
ag1586
aI1
aI1
ag6
ag7
ag8
aag775
aa(lp2071
(lp2072
g1586
ag1586
aI1
aI1
ag6
ag7
ag8
aa(lp2073
NaNaNaNaNaNag1591
aa(lp2074
NaNaNaNaNaNag1591
aa(lp2075
NaNaNaNaNaNag1591
aa(lp2076
g1604
ag1586
aI1
aI1
ag6
ag7
ag8
aa(lp2077
NaNaNaNaNaNag1591
aa(lp2078
NaNaNaNaNaNag1591
aa(lp2079
g1588
ag1596
aI1
aI1
ag6
ag7
ag8
aa(lp2080
g1588
ag1586
aI1
aI1
ag6
ag7
ag8
aag1531
aa(lp2081
(lp2082
g1586
ag1586
aI1
aI1
ag6
ag7
ag8
aa(lp2083
NaNaNaNaNaNag1591
aa(lp2084
NaNaNaNaNaNag1591
aa(lp2085
NaNaNaNaNaNag1591
aa(lp2086
g1604
ag1586
aI1
aI1
ag6
ag7
ag8
aa(lp2087
NaNaNaNaNaNag1591
aa(lp2088
NaNaNaNaNaNag1591
aa(lp2089
g1588
ag1596
aI1
aI1
ag6
ag7
ag8
aa(lp2090
g1588
ag1586
aI1
aI1
ag6
ag7
ag8
aag523
aa(lp2091
(lp2092
g1586
ag1586
aI1
aI1
ag6
ag7
ag8
aa(lp2093
NaNaNaNaNaNag1591
aa(lp2094
NaNaNaNaNaNag1591
aa(lp2095
NaNaNaNaNaNag1591
aa(lp2096
g1604
ag1586
aI1
aI1
ag6
ag7
ag8
aa(lp2097
NaNaNaNaNaNag1591
aa(lp2098
NaNaNaNaNaNag1591
aa(lp2099
g1588
ag1596
aI1
aI1
ag6
ag7
ag8
aa(lp2100
g1588
ag1586
aI1
aI1
ag6
ag7
ag8
aag1027
aa(lp2101
(lp2102
g1586
ag1586
aI1
aI1
ag6
ag7
ag8
aa(lp2103
NaNaNaNaNaNag1591
aa(lp2104
NaNaNaNaNaNag1591
aa(lp2105
NaNaNaNaNaNag1591
aa(lp2106
g1604
ag1586
aI1
aI1
ag6
ag7
ag8
aa(lp2107
NaNaNaNaNaNag1591
aa(lp2108
g1586
ag1596
aI1
aI1
ag30
ag7
ag8
aa(lp2109
NaNaNaNaNaNag1591
aa(lp2110
g1588
ag1586
aI1
aI1
ag6
ag7
ag8
aag1447
aa(lp2111
(lp2112
g1586
ag1586
aI1
aI1
ag6
ag7
ag8
aa(lp2113
NaNaNaNaNaNag1591
aa(lp2114
NaNaNaNaNaNag1591
aa(lp2115
NaNaNaNaNaNag1591
aa(lp2116
g1604
ag1586
aI1
aI1
ag6
ag7
ag8
aa(lp2117
NaNaNaNaNaNag1591
aa(lp2118
g1586
ag1596
aI1
aI1
ag30
ag7
ag8
aa(lp2119
NaNaNaNaNaNag1591
aa(lp2120
g1588
ag1586
aI1
aI1
ag6
ag7
ag8
aag439
aa(lp2121
(lp2122
g1586
ag1586
aI1
aI1
ag6
ag7
ag8
aa(lp2123
NaNaNaNaNaNag1591
aa(lp2124
NaNaNaNaNaNag1591
aa(lp2125
NaNaNaNaNaNag1591
aa(lp2126
g1604
ag1586
aI1
aI1
ag6
ag7
ag8
aa(lp2127
NaNaNaNaNaNag1591
aa(lp2128
g1586
ag1596
aI1
aI1
ag30
ag7
ag8
aa(lp2129
NaNaNaNaNaNag1591
aa(lp2130
g1588
ag1586
aI1
aI1
ag6
ag7
ag8
aag355
aa(lp2131
(lp2132
g1586
ag1586
aI1
aI1
ag6
ag7
ag8
aa(lp2133
NaNaNaNaNaNag1591
aa(lp2134
NaNaNaNaNaNag1591
aa(lp2135
NaNaNaNaNaNag1591
aa(lp2136
g1604
ag1586
aI1
aI1
ag6
ag7
ag8
aa(lp2137
NaNaNaNaNaNag1591
aa(lp2138
g1586
ag1596
aI1
aI1
ag30
ag7
ag8
aa(lp2139
NaNaNaNaNaNag1591
aa(lp2140
g1588
ag1586
aI1
aI1
ag6
ag7
ag8
aag271
aa(lp2141
(lp2142
g1586
ag1586
aI1
aI1
ag6
ag7
ag8
aa(lp2143
NaNaNaNaNaNag1591
aa(lp2144
NaNaNaNaNaNag1591
aa(lp2145
NaNaNaNaNaNag1591
aa(lp2146
g1604
ag1586
aI1
aI1
ag6
ag7
ag8
aa(lp2147
NaNaNaNaNaNag1591
aa(lp2148
g1586
ag1596
aI1
aI1
ag30
ag7
ag8
aa(lp2149
g1588
ag1596
aI1
aI1
ag6
ag7
ag8
aa(lp2150
g1588
ag1586
aI1
aI1
ag6
ag7
ag8
aag1279
aa(lp2151
(lp2152
g1586
ag1586
aI1
aI1
ag6
ag7
ag8
aa(lp2153
NaNaNaNaNaNag1591
aa(lp2154
NaNaNaNaNaNag1591
aa(lp2155
NaNaNaNaNaNag1591
aa(lp2156
g1604
ag1586
aI1
aI1
ag6
ag7
ag8
aa(lp2157
NaNaNaNaNaNag1591
aa(lp2158
g1586
ag1596
aI1
aI1
ag30
ag7
ag8
aa(lp2159
g1588
ag1596
aI1
aI1
ag6
ag7
ag8
aa(lp2160
g1588
ag1586
aI1
aI1
ag6
ag7
ag8
aag1111
aa(lp2161
(lp2162
g1586
ag1586
aI1
aI1
ag6
ag7
ag8
aa(lp2163
NaNaNaNaNaNag1591
aa(lp2164
NaNaNaNaNaNag1591
aa(lp2165
NaNaNaNaNaNag1591
aa(lp2166
g1604
ag1586
aI1
aI1
ag6
ag7
ag8
aa(lp2167
NaNaNaNaNaNag1591
aa(lp2168
g1586
ag1596
aI1
aI1
ag30
ag7
ag8
aa(lp2169
g1588
ag1596
aI1
aI1
ag6
ag7
ag8
aa(lp2170
g1588
ag1586
aI1
aI1
ag6
ag7
ag8
aag943
aa(lp2171
(lp2172
g1586
ag1586
aI1
aI1
ag6
ag7
ag8
aa(lp2173
NaNaNaNaNaNag1591
aa(lp2174
NaNaNaNaNaNag1591
aa(lp2175
NaNaNaNaNaNag1591
aa(lp2176
g1604
ag1586
aI1
aI1
ag6
ag7
ag8
aa(lp2177
NaNaNaNaNaNag1591
aa(lp2178
g1586
ag1596
aI1
aI1
ag6
ag7
ag8
aa(lp2179
NaNaNaNaNaNag1591
aa(lp2180
NaNaNaNaNaNag1591
aag1447
aa(lp2181
(lp2182
g1586
ag1586
aI1
aI1
ag6
ag7
ag8
aa(lp2183
NaNaNaNaNaNag1591
aa(lp2184
NaNaNaNaNaNag1591
aa(lp2185
NaNaNaNaNaNag1591
aa(lp2186
g1604
ag1586
aI1
aI1
ag6
ag7
ag8
aa(lp2187
NaNaNaNaNaNag1591
aa(lp2188
g1586
ag1596
aI1
aI1
ag6
ag7
ag8
aa(lp2189
NaNaNaNaNaNag1591
aa(lp2190
NaNaNaNaNaNag1591
aag1531
aa(lp2191
(lp2192
g1586
ag1586
aI1
aI1
ag6
ag7
ag8
aa(lp2193
NaNaNaNaNaNag1591
aa(lp2194
NaNaNaNaNaNag1591
aa(lp2195
NaNaNaNaNaNag1591
aa(lp2196
g1604
ag1586
aI1
aI1
ag6
ag7
ag8
aa(lp2197
NaNaNaNaNaNag1591
aa(lp2198
g1586
ag1596
aI1
aI1
ag6
ag7
ag8
aa(lp2199
NaNaNaNaNaNag1591
aa(lp2200
NaNaNaNaNaNag1591
aag355
aa(lp2201
(lp2202
g1586
ag1586
aI1
aI1
ag6
ag7
ag8
aa(lp2203
NaNaNaNaNaNag1591
aa(lp2204
NaNaNaNaNaNag1591
aa(lp2205
NaNaNaNaNaNag1591
aa(lp2206
g1604
ag1586
aI1
aI1
ag6
ag7
ag8
aa(lp2207
NaNaNaNaNaNag1591
aa(lp2208
g1586
ag1596
aI1
aI1
ag6
ag7
ag8
aa(lp2209
NaNaNaNaNaNag1591
aa(lp2210
NaNaNaNaNaNag1591
aag1027
aa(lp2211
(lp2212
g1586
ag1586
aI1
aI1
ag6
ag7
ag8
aa(lp2213
NaNaNaNaNaNag1591
aa(lp2214
NaNaNaNaNaNag1591
aa(lp2215
NaNaNaNaNaNag1591
aa(lp2216
g1604
ag1586
aI1
aI1
ag6
ag7
ag8
aa(lp2217
g1604
ag1596
aI1
aI1
ag30
ag7
ag8
aa(lp2218
NaNaNaNaNaNag1591
aa(lp2219
NaNaNaNaNaNag1591
aa(lp2220
g1588
ag1586
aI1
aI1
ag6
ag7
ag8
aag1531
aa(lp2221
(lp2222
g1586
ag1586
aI1
aI1
ag6
ag7
ag8
aa(lp2223
NaNaNaNaNaNag1591
aa(lp2224
NaNaNaNaNaNag1591
aa(lp2225
NaNaNaNaNaNag1591
aa(lp2226
g1604
ag1586
aI1
aI1
ag6
ag7
ag8
aa(lp2227
g1604
ag1596
aI1
aI1
ag30
ag7
ag8
aa(lp2228
NaNaNaNaNaNag1591
aa(lp2229
NaNaNaNaNaNag1591
aa(lp2230
g1588
ag1586
aI1
aI1
ag6
ag7
ag8
aag523
aa(lp2231
(lp2232
g1586
ag1586
aI1
aI1
ag6
ag7
ag8
aa(lp2233
NaNaNaNaNaNag1591
aa(lp2234
NaNaNaNaNaNag1591
aa(lp2235
NaNaNaNaNaNag1591
aa(lp2236
g1604
ag1586
aI1
aI1
ag6
ag7
ag8
aa(lp2237
g1604
ag1596
aI1
aI1
ag30
ag7
ag8
aa(lp2238
NaNaNaNaNaNag1591
aa(lp2239
g1588
ag1596
aI1
aI1
ag6
ag7
ag8
aa(lp2240
g1588
ag1586
aI1
aI1
ag6
ag7
ag8
aag1447
aa(lp2241
(lp2242
g1586
ag1586
aI1
aI1
ag6
ag7
ag8
aa(lp2243
NaNaNaNaNaNag1591
aa(lp2244
NaNaNaNaNaNag1591
aa(lp2245
NaNaNaNaNaNag1591
aa(lp2246
g1604
ag1586
aI1
aI1
ag6
ag7
ag8
aa(lp2247
g1604
ag1596
aI1
aI1
ag30
ag7
ag8
aa(lp2248
NaNaNaNaNaNag1591
aa(lp2249
g1588
ag1596
aI1
aI1
ag6
ag7
ag8
aa(lp2250
g1588
ag1586
aI1
aI1
ag6
ag7
ag8
aag439
aa(lp2251
(lp2252
g1586
ag1586
aI1
aI1
ag6
ag7
ag8
aa(lp2253
NaNaNaNaNaNag1591
aa(lp2254
NaNaNaNaNaNag1591
aa(lp2255
NaNaNaNaNaNag1591
aa(lp2256
g1604
ag1586
aI1
aI1
ag6
ag7
ag8
aa(lp2257
g1604
ag1596
aI1
aI1
ag30
ag7
ag8
aa(lp2258
NaNaNaNaNaNag1591
aa(lp2259
g1588
ag1596
aI1
aI1
ag6
ag7
ag8
aa(lp2260
g1588
ag1586
aI1
aI1
ag6
ag7
ag8
aag355
aa(lp2261
(lp2262
g1586
ag1586
aI1
aI1
ag6
ag7
ag8
aa(lp2263
NaNaNaNaNaNag1591
aa(lp2264
NaNaNaNaNaNag1591
aa(lp2265
NaNaNaNaNaNag1591
aa(lp2266
g1604
ag1586
aI1
aI1
ag6
ag7
ag8
aa(lp2267
g1604
ag1596
aI1
aI1
ag30
ag7
ag8
aa(lp2268
NaNaNaNaNaNag1591
aa(lp2269
g1588
ag1596
aI1
aI1
ag6
ag7
ag8
aa(lp2270
g1588
ag1586
aI1
aI1
ag6
ag7
ag8
aag271
aa(lp2271
(lp2272
g1586
ag1586
aI1
aI1
ag6
ag7
ag8
aa(lp2273
NaNaNaNaNaNag1591
aa(lp2274
NaNaNaNaNaNag1591
aa(lp2275
NaNaNaNaNaNag1591
aa(lp2276
g1604
ag1586
aI1
aI1
ag6
ag7
ag8
aa(lp2277
g1604
ag1596
aI1
aI1
ag30
ag7
ag8
aa(lp2278
g1586
ag1596
aI1
aI1
ag6
ag7
ag8
aa(lp2279
NaNaNaNaNaNag1591
aa(lp2280
NaNaNaNaNaNag1591
aag1279
aa(lp2281
(lp2282
g1586
ag1586
aI1
aI1
ag6
ag7
ag8
aa(lp2283
NaNaNaNaNaNag1591
aa(lp2284
NaNaNaNaNaNag1591
aa(lp2285
NaNaNaNaNaNag1591
aa(lp2286
g1604
ag1586
aI1
aI1
ag6
ag7
ag8
aa(lp2287
g1604
ag1596
aI1
aI1
ag30
ag7
ag8
aa(lp2288
g1586
ag1596
aI1
aI1
ag6
ag7
ag8
aa(lp2289
NaNaNaNaNaNag1591
aa(lp2290
NaNaNaNaNaNag1591
aag1111
aa(lp2291
(lp2292
g1586
ag1586
aI1
aI1
ag6
ag7
ag8
aa(lp2293
NaNaNaNaNaNag1591
aa(lp2294
NaNaNaNaNaNag1591
aa(lp2295
NaNaNaNaNaNag1591
aa(lp2296
g1604
ag1586
aI1
aI1
ag6
ag7
ag8
aa(lp2297
g1604
ag1596
aI1
aI1
ag30
ag7
ag8
aa(lp2298
g1586
ag1596
aI1
aI1
ag6
ag7
ag8
aa(lp2299
NaNaNaNaNaNag1591
aa(lp2300
NaNaNaNaNaNag1591
aag943
aa(lp2301
(lp2302
g1586
ag1586
aI1
aI1
ag6
ag7
ag8
aa(lp2303
NaNaNaNaNaNag1591
aa(lp2304
NaNaNaNaNaNag1591
aa(lp2305
NaNaNaNaNaNag1591
aa(lp2306
g1604
ag1586
aI1
aI1
ag6
ag7
ag8
aa(lp2307
g1604
ag1596
aI1
aI1
ag6
ag7
ag8
aa(lp2308
NaNaNaNaNaNag1591
aa(lp2309
NaNaNaNaNaNag1591
aa(lp2310
g1588
ag1586
aI1
aI1
ag6
ag7
ag8
aag1279
aa(lp2311
(lp2312
g1586
ag1586
aI1
aI1
ag6
ag7
ag8
aa(lp2313
NaNaNaNaNaNag1591
aa(lp2314
NaNaNaNaNaNag1591
aa(lp2315
NaNaNaNaNaNag1591
aa(lp2316
g1604
ag1586
aI1
aI1
ag6
ag7
ag8
aa(lp2317
g1604
ag1596
aI1
aI1
ag6
ag7
ag8
aa(lp2318
NaNaNaNaNaNag1591
aa(lp2319
NaNaNaNaNaNag1591
aa(lp2320
g1588
ag1586
aI1
aI1
ag6
ag7
ag8
aag1111
aa(lp2321
(lp2322
g1586
ag1586
aI1
aI1
ag6
ag7
ag8
aa(lp2323
NaNaNaNaNaNag1591
aa(lp2324
NaNaNaNaNaNag1591
aa(lp2325
NaNaNaNaNaNag1591
aa(lp2326
g1604
ag1586
aI1
aI1
ag6
ag7
ag8
aa(lp2327
g1604
ag1596
aI1
aI1
ag6
ag7
ag8
aa(lp2328
NaNaNaNaNaNag1591
aa(lp2329
NaNaNaNaNaNag1591
aa(lp2330
g1588
ag1586
aI1
aI1
ag6
ag7
ag8
aag943
aa(lp2331
(lp2332
g1586
ag1586
aI1
aI1
ag6
ag7
ag8
aa(lp2333
NaNaNaNaNaNag1591
aa(lp2334
NaNaNaNaNaNag1591
aa(lp2335
NaNaNaNaNaNag1591
aa(lp2336
g1604
ag1586
aI1
aI1
ag6
ag7
ag8
aa(lp2337
g1604
ag1596
aI1
aI1
ag6
ag7
ag8
aa(lp2338
NaNaNaNaNaNag1591
aa(lp2339
NaNaNaNaNaNag1591
aa(lp2340
g1588
ag1586
aI1
aI1
ag6
ag7
ag8
aag1027
aa(lp2341
(lp2342
g1586
ag1586
aI1
aI1
ag6
ag7
ag8
aa(lp2343
NaNaNaNaNaNag1591
aa(lp2344
NaNaNaNaNaNag1591
aa(lp2345
NaNaNaNaNaNag1591
aa(lp2346
g1604
ag1586
aI1
aI1
ag6
ag7
ag8
aa(lp2347
g1604
ag1596
aI1
aI1
ag6
ag7
ag8
aa(lp2348
NaNaNaNaNaNag1591
aa(lp2349
g1588
ag1596
aI1
aI1
ag30
ag7
ag8
aa(lp2350
g1588
ag1586
aI1
aI1
ag6
ag7
ag8
aag1447
aa(lp2351
(lp2352
g1586
ag1586
aI1
aI1
ag6
ag7
ag8
aa(lp2353
NaNaNaNaNaNag1591
aa(lp2354
NaNaNaNaNaNag1591
aa(lp2355
NaNaNaNaNaNag1591
aa(lp2356
g1604
ag1586
aI1
aI1
ag6
ag7
ag8
aa(lp2357
g1604
ag1596
aI1
aI1
ag6
ag7
ag8
aa(lp2358
NaNaNaNaNaNag1591
aa(lp2359
g1588
ag1596
aI1
aI1
ag30
ag7
ag8
aa(lp2360
g1588
ag1586
aI1
aI1
ag6
ag7
ag8
aag439
aa(lp2361
(lp2362
g1586
ag1586
aI1
aI1
ag6
ag7
ag8
aa(lp2363
NaNaNaNaNaNag1591
aa(lp2364
NaNaNaNaNaNag1591
aa(lp2365
NaNaNaNaNaNag1591
aa(lp2366
g1604
ag1586
aI1
aI1
ag6
ag7
ag8
aa(lp2367
g1604
ag1596
aI1
aI1
ag6
ag7
ag8
aa(lp2368
NaNaNaNaNaNag1591
aa(lp2369
g1588
ag1596
aI1
aI1
ag30
ag7
ag8
aa(lp2370
g1588
ag1586
aI1
aI1
ag6
ag7
ag8
aag355
aa(lp2371
(lp2372
g1586
ag1586
aI1
aI1
ag6
ag7
ag8
aa(lp2373
NaNaNaNaNaNag1591
aa(lp2374
NaNaNaNaNaNag1591
aa(lp2375
NaNaNaNaNaNag1591
aa(lp2376
g1604
ag1586
aI1
aI1
ag6
ag7
ag8
aa(lp2377
g1604
ag1596
aI1
aI1
ag6
ag7
ag8
aa(lp2378
NaNaNaNaNaNag1591
aa(lp2379
g1588
ag1596
aI1
aI1
ag30
ag7
ag8
aa(lp2380
g1588
ag1586
aI1
aI1
ag6
ag7
ag8
aag271
aa(lp2381
(lp2382
g1586
ag1586
aI1
aI1
ag6
ag7
ag8
aa(lp2383
NaNaNaNaNaNag1591
aa(lp2384
NaNaNaNaNaNag1591
aa(lp2385
NaNaNaNaNaNag1591
aa(lp2386
g1604
ag1586
aI1
aI1
ag6
ag7
ag8
aa(lp2387
g1604
ag1596
aI1
aI1
ag6
ag7
ag8
aa(lp2388
g1586
ag1596
aI1
aI1
ag30
ag7
ag8
aa(lp2389
NaNaNaNaNaNag1591
aa(lp2390
g1588
ag1586
aI1
aI1
ag6
ag7
ag8
aag1531
aa(lp2391
(lp2392
g1586
ag1586
aI1
aI1
ag6
ag7
ag8
aa(lp2393
NaNaNaNaNaNag1591
aa(lp2394
NaNaNaNaNaNag1591
aa(lp2395
NaNaNaNaNaNag1591
aa(lp2396
g1604
ag1586
aI1
aI1
ag6
ag7
ag8
aa(lp2397
g1604
ag1596
aI1
aI1
ag6
ag7
ag8
aa(lp2398
g1586
ag1596
aI1
aI1
ag30
ag7
ag8
aa(lp2399
NaNaNaNaNaNag1591
aa(lp2400
g1588
ag1586
aI1
aI1
ag6
ag7
ag8
aag523
aa(lp2401
(lp2402
g1586
ag1586
aI1
aI1
ag6
ag7
ag8
aa(lp2403
NaNaNaNaNaNag1591
aa(lp2404
NaNaNaNaNaNag1591
aa(lp2405
g1604
ag1589
aI1
aI1
ag6
ag7
ag8
aa(lp2406
g1604
ag1586
aI1
aI1
ag6
ag7
ag8
aa(lp2407
g1604
ag1596
aI1
aI1
ag6
ag7
ag8
aa(lp2408
g1586
ag1596
aI1
aI1
ag265
ag7
ag8
aa(lp2409
NaNaNaNaNaNag1591
aa(lp2410
NaNaNaNaNaNag1591
aag1279
aa(lp2411
(lp2412
g1586
ag1586
aI1
aI1
ag6
ag7
ag8
aa(lp2413
NaNaNaNaNaNag1591
aa(lp2414
NaNaNaNaNaNag1591
aa(lp2415
g1604
ag1589
aI1
aI1
ag6
ag7
ag8
aa(lp2416
g1604
ag1586
aI1
aI1
ag6
ag7
ag8
aa(lp2417
g1604
ag1596
aI1
aI1
ag6
ag7
ag8
aa(lp2418
g1586
ag1596
aI1
aI1
ag265
ag7
ag8
aa(lp2419
NaNaNaNaNaNag1591
aa(lp2420
NaNaNaNaNaNag1591
aag1111
aa(lp2421
(lp2422
g1586
ag1586
aI1
aI1
ag6
ag7
ag8
aa(lp2423
NaNaNaNaNaNag1591
aa(lp2424
NaNaNaNaNaNag1591
aa(lp2425
g1604
ag1589
aI1
aI1
ag6
ag7
ag8
aa(lp2426
g1604
ag1586
aI1
aI1
ag6
ag7
ag8
aa(lp2427
g1604
ag1596
aI1
aI1
ag6
ag7
ag8
aa(lp2428
g1586
ag1596
aI1
aI1
ag265
ag7
ag8
aa(lp2429
NaNaNaNaNaNag1591
aa(lp2430
NaNaNaNaNaNag1591
aag943
aa(lp2431
(lp2432
g1586
ag1586
aI1
aI1
ag6
ag7
ag8
aa(lp2433
NaNaNaNaNaNag1591
aa(lp2434
NaNaNaNaNaNag1591
aa(lp2435
g1604
ag1589
aI1
aI1
ag6
ag7
ag8
aa(lp2436
g1604
ag1586
aI1
aI1
ag6
ag7
ag8
aa(lp2437
g1604
ag1596
aI1
aI1
ag6
ag7
ag8
aa(lp2438
g1586
ag1596
aI1
aI1
ag265
ag7
ag8
aa(lp2439
NaNaNaNaNaNag1591
aa(lp2440
g1588
ag1586
aI1
aI1
ag30
ag7
ag8
aag775
aa(lp2441
(lp2442
g1586
ag1586
aI1
aI1
ag6
ag7
ag8
aa(lp2443
NaNaNaNaNaNag1591
aa(lp2444
NaNaNaNaNaNag1591
aa(lp2445
g1604
ag1589
aI1
aI1
ag6
ag7
ag8
aa(lp2446
g1604
ag1586
aI1
aI1
ag6
ag7
ag8
aa(lp2447
g1604
ag1596
aI1
aI1
ag6
ag7
ag8
aa(lp2448
g1586
ag1596
aI1
aI1
ag265
ag7
ag8
aa(lp2449
NaNaNaNaNaNag1591
aa(lp2450
g1588
ag1586
aI1
aI1
ag30
ag7
ag8
aag1195
aa(lp2451
(lp2452
g1586
ag1586
aI1
aI1
ag6
ag7
ag8
aa(lp2453
NaNaNaNaNaNag1591
aa(lp2454
NaNaNaNaNaNag1591
aa(lp2455
g1604
ag1589
aI1
aI1
ag6
ag7
ag8
aa(lp2456
g1604
ag1586
aI1
aI1
ag6
ag7
ag8
aa(lp2457
g1604
ag1596
aI1
aI1
ag6
ag7
ag8
aa(lp2458
g1586
ag1596
aI1
aI1
ag265
ag7
ag8
aa(lp2459
NaNaNaNaNaNag1591
aa(lp2460
g1588
ag1586
aI1
aI1
ag30
ag7
ag8
aag1027
aa(lp2461
(lp2462
g1586
ag1586
aI1
aI1
ag6
ag7
ag8
aa(lp2463
NaNaNaNaNaNag1591
aa(lp2464
NaNaNaNaNaNag1591
aa(lp2465
g1604
ag1589
aI1
aI1
ag6
ag7
ag8
aa(lp2466
g1604
ag1586
aI1
aI1
ag6
ag7
ag8
aa(lp2467
g1604
ag1596
aI1
aI1
ag6
ag7
ag8
aa(lp2468
g1586
ag1596
aI1
aI1
ag265
ag7
ag8
aa(lp2469
g1588
ag1596
aI1
aI1
ag30
ag7
ag8
aa(lp2470
NaNaNaNaNaNag1591
aag859
aa(lp2471
(lp2472
g1586
ag1586
aI1
aI1
ag6
ag7
ag8
aa(lp2473
NaNaNaNaNaNag1591
aa(lp2474
NaNaNaNaNaNag1591
aa(lp2475
g1604
ag1589
aI1
aI1
ag6
ag7
ag8
aa(lp2476
g1604
ag1586
aI1
aI1
ag6
ag7
ag8
aa(lp2477
g1604
ag1596
aI1
aI1
ag6
ag7
ag8
aa(lp2478
g1586
ag1596
aI1
aI1
ag265
ag7
ag8
aa(lp2479
g1588
ag1596
aI1
aI1
ag30
ag7
ag8
aa(lp2480
NaNaNaNaNaNag1591
aag1363
aa(lp2481
(lp2482
g1586
ag1586
aI1
aI1
ag6
ag7
ag8
aa(lp2483
NaNaNaNaNaNag1591
aa(lp2484
NaNaNaNaNaNag1591
aa(lp2485
g1604
ag1589
aI1
aI1
ag6
ag7
ag8
aa(lp2486
g1604
ag1586
aI1
aI1
ag6
ag7
ag8
aa(lp2487
g1604
ag1596
aI1
aI1
ag6
ag7
ag8
aa(lp2488
g1586
ag1596
aI1
aI1
ag265
ag7
ag8
aa(lp2489
g1588
ag1596
aI1
aI1
ag30
ag7
ag8
aa(lp2490
NaNaNaNaNaNag1591
aag691
aa(lp2491
(lp2492
g1586
ag1586
aI1
aI1
ag6
ag7
ag8
aa(lp2493
NaNaNaNaNaNag1591
aa(lp2494
g1586
ag1589
aI1
aI1
ag30
ag7
ag8
aa(lp2495
g1604
ag1589
aI1
aI1
ag6
ag7
ag8
aa(lp2496
g1604
ag1586
aI1
aI1
ag6
ag7
ag8
aa(lp2497
g1604
ag1596
aI1
aI1
ag6
ag7
ag8
aa(lp2498
g1586
ag1596
aI1
aI1
ag265
ag7
ag8
aa(lp2499
NaNaNaNaNaNag1591
aa(lp2500
NaNaNaNaNaNag1591
aag1531
aa(lp2501
(lp2502
g1586
ag1586
aI1
aI1
ag6
ag7
ag8
aa(lp2503
NaNaNaNaNaNag1591
aa(lp2504
g1586
ag1589
aI1
aI1
ag30
ag7
ag8
aa(lp2505
g1604
ag1589
aI1
aI1
ag6
ag7
ag8
aa(lp2506
g1604
ag1586
aI1
aI1
ag6
ag7
ag8
aa(lp2507
g1604
ag1596
aI1
aI1
ag6
ag7
ag8
aa(lp2508
g1586
ag1596
aI1
aI1
ag265
ag7
ag8
aa(lp2509
NaNaNaNaNaNag1591
aa(lp2510
NaNaNaNaNaNag1591
aag523
aa(lp2511
(lp2512
g1586
ag1586
aI1
aI1
ag6
ag7
ag8
aa(lp2513
NaNaNaNaNaNag1591
aa(lp2514
g1586
ag1589
aI1
aI1
ag265
ag7
ag8
aa(lp2515
g1604
ag1589
aI1
aI1
ag6
ag7
ag8
aa(lp2516
g1604
ag1586
aI1
aI1
ag6
ag7
ag8
aa(lp2517
NaNaNaNaNaNag1591
aa(lp2518
NaNaNaNaNaNag1591
aa(lp2519
NaNaNaNaNaNag1591
aa(lp2520
g1588
ag1586
aI1
aI1
ag6
ag7
ag8
aag1447
aa(lp2521
(lp2522
g1586
ag1586
aI1
aI1
ag6
ag7
ag8
aa(lp2523
NaNaNaNaNaNag1591
aa(lp2524
g1586
ag1589
aI1
aI1
ag265
ag7
ag8
aa(lp2525
g1604
ag1589
aI1
aI1
ag6
ag7
ag8
aa(lp2526
g1604
ag1586
aI1
aI1
ag6
ag7
ag8
aa(lp2527
NaNaNaNaNaNag1591
aa(lp2528
NaNaNaNaNaNag1591
aa(lp2529
NaNaNaNaNaNag1591
aa(lp2530
g1588
ag1586
aI1
aI1
ag6
ag7
ag8
aag1531
aa(lp2531
(lp2532
g1586
ag1586
aI1
aI1
ag6
ag7
ag8
aa(lp2533
NaNaNaNaNaNag1591
aa(lp2534
g1586
ag1589
aI1
aI1
ag265
ag7
ag8
aa(lp2535
g1604
ag1589
aI1
aI1
ag6
ag7
ag8
aa(lp2536
g1604
ag1586
aI1
aI1
ag6
ag7
ag8
aa(lp2537
NaNaNaNaNaNag1591
aa(lp2538
NaNaNaNaNaNag1591
aa(lp2539
NaNaNaNaNaNag1591
aa(lp2540
g1588
ag1586
aI1
aI1
ag6
ag7
ag8
aag943
aa(lp2541
(lp2542
g1586
ag1586
aI1
aI1
ag6
ag7
ag8
aa(lp2543
NaNaNaNaNaNag1591
aa(lp2544
g1586
ag1589
aI1
aI1
ag265
ag7
ag8
aa(lp2545
g1604
ag1589
aI1
aI1
ag6
ag7
ag8
aa(lp2546
g1604
ag1586
aI1
aI1
ag6
ag7
ag8
aa(lp2547
NaNaNaNaNaNag1591
aa(lp2548
NaNaNaNaNaNag1591
aa(lp2549
NaNaNaNaNaNag1591
aa(lp2550
g1588
ag1586
aI1
aI1
ag6
ag7
ag8
aag1027
aa(lp2551
(lp2552
g1586
ag1586
aI1
aI1
ag6
ag7
ag8
aa(lp2553
NaNaNaNaNaNag1591
aa(lp2554
g1586
ag1589
aI1
aI1
ag6
ag7
ag8
aa(lp2555
NaNaNaNaNaNag1591
aa(lp2556
NaNaNaNaNaNag1591
aa(lp2557
NaNaNaNaNaNag1591
aa(lp2558
g1586
ag1596
aI1
aI1
ag6
ag7
ag8
aa(lp2559
g1588
ag1596
aI1
aI1
ag265
ag7
ag8
aa(lp2560
g1588
ag1586
aI1
aI1
ag6
ag7
ag8
aag1447
aa(lp2561
(lp2562
g1586
ag1586
aI1
aI1
ag6
ag7
ag8
aa(lp2563
NaNaNaNaNaNag1591
aa(lp2564
g1586
ag1589
aI1
aI1
ag6
ag7
ag8
aa(lp2565
NaNaNaNaNaNag1591
aa(lp2566
NaNaNaNaNaNag1591
aa(lp2567
NaNaNaNaNaNag1591
aa(lp2568
g1586
ag1596
aI1
aI1
ag6
ag7
ag8
aa(lp2569
g1588
ag1596
aI1
aI1
ag265
ag7
ag8
aa(lp2570
g1588
ag1586
aI1
aI1
ag6
ag7
ag8
aag439
aa(lp2571
(lp2572
g1586
ag1586
aI1
aI1
ag6
ag7
ag8
aa(lp2573
NaNaNaNaNaNag1591
aa(lp2574
g1586
ag1589
aI1
aI1
ag6
ag7
ag8
aa(lp2575
NaNaNaNaNaNag1591
aa(lp2576
NaNaNaNaNaNag1591
aa(lp2577
NaNaNaNaNaNag1591
aa(lp2578
g1586
ag1596
aI1
aI1
ag6
ag7
ag8
aa(lp2579
g1588
ag1596
aI1
aI1
ag265
ag7
ag8
aa(lp2580
g1588
ag1586
aI1
aI1
ag6
ag7
ag8
aag943
aa(lp2581
(lp2582
g1586
ag1586
aI1
aI1
ag6
ag7
ag8
aa(lp2583
NaNaNaNaNaNag1591
aa(lp2584
g1586
ag1589
aI1
aI1
ag6
ag7
ag8
aa(lp2585
NaNaNaNaNaNag1591
aa(lp2586
NaNaNaNaNaNag1591
aa(lp2587
NaNaNaNaNaNag1591
aa(lp2588
g1586
ag1596
aI1
aI1
ag6
ag7
ag8
aa(lp2589
g1588
ag1596
aI1
aI1
ag265
ag7
ag8
aa(lp2590
g1588
ag1586
aI1
aI1
ag6
ag7
ag8
aag1027
aa(lp2591
(lp2592
g1586
ag1586
aI1
aI1
ag6
ag7
ag8
aa(lp2593
NaNaNaNaNaNag1591
aa(lp2594
g1586
ag1589
aI1
aI1
ag6
ag7
ag8
aa(lp2595
NaNaNaNaNaNag1591
aa(lp2596
NaNaNaNaNaNag1591
aa(lp2597
g1604
ag1596
aI1
aI1
ag262
ag7
ag8
aa(lp2598
g1586
ag1596
aI1
aI1
ag6
ag7
ag8
aa(lp2599
NaNaNaNaNaNag1591
aa(lp2600
NaNaNaNaNaNag1591
aag1447
aa(lp2601
(lp2602
g1586
ag1586
aI1
aI1
ag6
ag7
ag8
aa(lp2603
NaNaNaNaNaNag1591
aa(lp2604
g1586
ag1589
aI1
aI1
ag6
ag7
ag8
aa(lp2605
NaNaNaNaNaNag1591
aa(lp2606
NaNaNaNaNaNag1591
aa(lp2607
g1604
ag1596
aI1
aI1
ag262
ag7
ag8
aa(lp2608
g1586
ag1596
aI1
aI1
ag6
ag7
ag8
aa(lp2609
NaNaNaNaNaNag1591
aa(lp2610
NaNaNaNaNaNag1591
aag1531
aa(lp2611
(lp2612
g1586
ag1586
aI1
aI1
ag6
ag7
ag8
aa(lp2613
NaNaNaNaNaNag1591
aa(lp2614
g1586
ag1589
aI1
aI1
ag6
ag7
ag8
aa(lp2615
NaNaNaNaNaNag1591
aa(lp2616
NaNaNaNaNaNag1591
aa(lp2617
g1604
ag1596
aI1
aI1
ag262
ag7
ag8
aa(lp2618
g1586
ag1596
aI1
aI1
ag6
ag7
ag8
aa(lp2619
NaNaNaNaNaNag1591
aa(lp2620
NaNaNaNaNaNag1591
aag355
aa(lp2621
(lp2622
g1586
ag1586
aI1
aI1
ag6
ag7
ag8
aa(lp2623
NaNaNaNaNaNag1591
aa(lp2624
g1586
ag1589
aI1
aI1
ag6
ag7
ag8
aa(lp2625
NaNaNaNaNaNag1591
aa(lp2626
NaNaNaNaNaNag1591
aa(lp2627
g1604
ag1596
aI1
aI1
ag262
ag7
ag8
aa(lp2628
g1586
ag1596
aI1
aI1
ag6
ag7
ag8
aa(lp2629
NaNaNaNaNaNag1591
aa(lp2630
NaNaNaNaNaNag1591
aag1027
aa(lp2631
(lp2632
g1586
ag1586
aI1
aI1
ag6
ag7
ag8
aa(lp2633
NaNaNaNaNaNag1591
aa(lp2634
g1586
ag1589
aI1
aI1
ag6
ag7
ag8
aa(lp2635
NaNaNaNaNaNag1591
aa(lp2636
g1604
ag1586
aI1
aI1
ag30
ag7
ag8
aa(lp2637
g1604
ag1596
aI1
aI1
ag262
ag7
ag8
aa(lp2638
g1586
ag1596
aI1
aI1
ag6
ag7
ag8
aa(lp2639
NaNaNaNaNaNag1591
aa(lp2640
NaNaNaNaNaNag1591
aag607
aa(lp2641
(lp2642
g1586
ag1586
aI1
aI1
ag6
ag7
ag8
aa(lp2643
NaNaNaNaNaNag1591
aa(lp2644
g1586
ag1589
aI1
aI1
ag6
ag7
ag8
aa(lp2645
NaNaNaNaNaNag1591
aa(lp2646
g1604
ag1586
aI1
aI1
ag262
ag7
ag8
aa(lp2647
g1604
ag1596
aI1
aI1
ag6
ag7
ag8
aa(lp2648
g1586
ag1596
aI1
aI1
ag6
ag7
ag8
aa(lp2649
NaNaNaNaNaNag1591
aa(lp2650
NaNaNaNaNaNag1591
aag1447
aa(lp2651
(lp2652
g1586
ag1586
aI1
aI1
ag6
ag7
ag8
aa(lp2653
NaNaNaNaNaNag1591
aa(lp2654
g1586
ag1589
aI1
aI1
ag6
ag7
ag8
aa(lp2655
NaNaNaNaNaNag1591
aa(lp2656
g1604
ag1586
aI1
aI1
ag262
ag7
ag8
aa(lp2657
g1604
ag1596
aI1
aI1
ag6
ag7
ag8
aa(lp2658
g1586
ag1596
aI1
aI1
ag6
ag7
ag8
aa(lp2659
NaNaNaNaNaNag1591
aa(lp2660
NaNaNaNaNaNag1591
aag1531
aa(lp2661
(lp2662
g1586
ag1586
aI1
aI1
ag6
ag7
ag8
aa(lp2663
NaNaNaNaNaNag1591
aa(lp2664
g1586
ag1589
aI1
aI1
ag6
ag7
ag8
aa(lp2665
NaNaNaNaNaNag1591
aa(lp2666
g1604
ag1586
aI1
aI1
ag262
ag7
ag8
aa(lp2667
g1604
ag1596
aI1
aI1
ag6
ag7
ag8
aa(lp2668
g1586
ag1596
aI1
aI1
ag6
ag7
ag8
aa(lp2669
NaNaNaNaNaNag1591
aa(lp2670
NaNaNaNaNaNag1591
aag943
aa(lp2671
(lp2672
g1586
ag1586
aI1
aI1
ag6
ag7
ag8
aa(lp2673
NaNaNaNaNaNag1591
aa(lp2674
g1586
ag1589
aI1
aI1
ag6
ag7
ag8
aa(lp2675
NaNaNaNaNaNag1591
aa(lp2676
g1604
ag1586
aI1
aI1
ag262
ag7
ag8
aa(lp2677
g1604
ag1596
aI1
aI1
ag6
ag7
ag8
aa(lp2678
g1586
ag1596
aI1
aI1
ag6
ag7
ag8
aa(lp2679
NaNaNaNaNaNag1591
aa(lp2680
NaNaNaNaNaNag1591
aag1027
aa(lp2681
(lp2682
g1586
ag1586
aI1
aI1
ag6
ag7
ag8
aa(lp2683
NaNaNaNaNaNag1591
aa(lp2684
g1586
ag1589
aI1
aI1
ag6
ag7
ag8
aa(lp2685
g1604
ag1589
aI1
aI1
ag30
ag7
ag8
aa(lp2686
NaNaNaNaNaNag1591
aa(lp2687
g1604
ag1596
aI1
aI1
ag262
ag7
ag8
aa(lp2688
g1586
ag1596
aI1
aI1
ag6
ag7
ag8
aa(lp2689
NaNaNaNaNaNag1591
aa(lp2690
NaNaNaNaNaNag1591
aag1279
aa(lp2691
(lp2692
g1586
ag1586
aI1
aI1
ag6
ag7
ag8
aa(lp2693
NaNaNaNaNaNag1591
aa(lp2694
g1586
ag1589
aI1
aI1
ag6
ag7
ag8
aa(lp2695
g1604
ag1589
aI1
aI1
ag30
ag7
ag8
aa(lp2696
NaNaNaNaNaNag1591
aa(lp2697
g1604
ag1596
aI1
aI1
ag262
ag7
ag8
aa(lp2698
g1586
ag1596
aI1
aI1
ag6
ag7
ag8
aa(lp2699
NaNaNaNaNaNag1591
aa(lp2700
NaNaNaNaNaNag1591
aag1111
aa(lp2701
(lp2702
g1586
ag1586
aI1
aI1
ag6
ag7
ag8
aa(lp2703
NaNaNaNaNaNag1591
aa(lp2704
g1586
ag1589
aI1
aI1
ag6
ag7
ag8
aa(lp2705
g1604
ag1589
aI1
aI1
ag30
ag7
ag8
aa(lp2706
NaNaNaNaNaNag1591
aa(lp2707
g1604
ag1596
aI1
aI1
ag262
ag7
ag8
aa(lp2708
g1586
ag1596
aI1
aI1
ag6
ag7
ag8
aa(lp2709
NaNaNaNaNaNag1591
aa(lp2710
NaNaNaNaNaNag1591
aag943
aa(lp2711
(lp2712
g1586
ag1586
aI1
aI1
ag6
ag7
ag8
aa(lp2713
NaNaNaNaNaNag1591
aa(lp2714
g1586
ag1589
aI1
aI1
ag6
ag7
ag8
aa(lp2715
g1604
ag1589
aI1
aI1
ag30
ag7
ag8
aa(lp2716
g1604
ag1586
aI1
aI1
ag262
ag7
ag8
aa(lp2717
g1604
ag1596
aI1
aI1
ag6
ag7
ag8
aa(lp2718
g1586
ag1596
aI1
aI1
ag6
ag7
ag8
aa(lp2719
NaNaNaNaNaNag1591
aa(lp2720
NaNaNaNaNaNag1591
aag607
aa(lp2721
(lp2722
g1586
ag1586
aI1
aI1
ag6
ag7
ag8
aa(lp2723
NaNaNaNaNaNag1591
aa(lp2724
g1586
ag1589
aI1
aI1
ag6
ag7
ag8
aa(lp2725
g1604
ag1589
aI1
aI1
ag262
ag7
ag8
aa(lp2726
g1604
ag1586
aI1
aI1
ag6
ag7
ag8
aa(lp2727
NaNaNaNaNaNag1591
aa(lp2728
NaNaNaNaNaNag1591
aa(lp2729
NaNaNaNaNaNag1591
aa(lp2730
NaNaNaNaNaNag1591
aag1447
aa(lp2731
(lp2732
g1586
ag1586
aI1
aI1
ag6
ag7
ag8
aa(lp2733
NaNaNaNaNaNag1591
aa(lp2734
g1586
ag1589
aI1
aI1
ag6
ag7
ag8
aa(lp2735
g1604
ag1589
aI1
aI1
ag262
ag7
ag8
aa(lp2736
g1604
ag1586
aI1
aI1
ag6
ag7
ag8
aa(lp2737
NaNaNaNaNaNag1591
aa(lp2738
NaNaNaNaNaNag1591
aa(lp2739
NaNaNaNaNaNag1591
aa(lp2740
NaNaNaNaNaNag1591
aag1531
aa(lp2741
(lp2742
g1586
ag1586
aI1
aI1
ag6
ag7
ag8
aa(lp2743
NaNaNaNaNaNag1591
aa(lp2744
g1586
ag1589
aI1
aI1
ag6
ag7
ag8
aa(lp2745
g1604
ag1589
aI1
aI1
ag262
ag7
ag8
aa(lp2746
g1604
ag1586
aI1
aI1
ag6
ag7
ag8
aa(lp2747
NaNaNaNaNaNag1591
aa(lp2748
NaNaNaNaNaNag1591
aa(lp2749
NaNaNaNaNaNag1591
aa(lp2750
NaNaNaNaNaNag1591
aag943
aa(lp2751
(lp2752
g1586
ag1586
aI1
aI1
ag6
ag7
ag8
aa(lp2753
NaNaNaNaNaNag1591
aa(lp2754
g1586
ag1589
aI1
aI1
ag6
ag7
ag8
aa(lp2755
g1604
ag1589
aI1
aI1
ag262
ag7
ag8
aa(lp2756
g1604
ag1586
aI1
aI1
ag6
ag7
ag8
aa(lp2757
NaNaNaNaNaNag1591
aa(lp2758
NaNaNaNaNaNag1591
aa(lp2759
NaNaNaNaNaNag1591
aa(lp2760
NaNaNaNaNaNag1591
aag1027
aa(lp2761
(lp2762
g1586
ag1586
aI1
aI1
ag6
ag7
ag8
aa(lp2763
NaNaNaNaNaNag1591
aa(lp2764
g1586
ag1589
aI1
aI1
ag6
ag7
ag8
aa(lp2765
g1604
ag1589
aI1
aI1
ag6
ag7
ag8
aa(lp2766
NaNaNaNaNaNag1591
aa(lp2767
NaNaNaNaNaNag1591
aa(lp2768
g1586
ag1596
aI1
aI1
ag6
ag7
ag8
aa(lp2769
NaNaNaNaNaNag1591
aa(lp2770
NaNaNaNaNaNag1591
aag1447
aa(lp2771
(lp2772
g1586
ag1586
aI1
aI1
ag6
ag7
ag8
aa(lp2773
NaNaNaNaNaNag1591
aa(lp2774
g1586
ag1589
aI1
aI1
ag6
ag7
ag8
aa(lp2775
g1604
ag1589
aI1
aI1
ag6
ag7
ag8
aa(lp2776
NaNaNaNaNaNag1591
aa(lp2777
NaNaNaNaNaNag1591
aa(lp2778
g1586
ag1596
aI1
aI1
ag6
ag7
ag8
aa(lp2779
NaNaNaNaNaNag1591
aa(lp2780
NaNaNaNaNaNag1591
aag1531
aa(lp2781
(lp2782
g1586
ag1586
aI1
aI1
ag6
ag7
ag8
aa(lp2783
NaNaNaNaNaNag1591
aa(lp2784
g1586
ag1589
aI1
aI1
ag6
ag7
ag8
aa(lp2785
g1604
ag1589
aI1
aI1
ag6
ag7
ag8
aa(lp2786
NaNaNaNaNaNag1591
aa(lp2787
NaNaNaNaNaNag1591
aa(lp2788
g1586
ag1596
aI1
aI1
ag6
ag7
ag8
aa(lp2789
NaNaNaNaNaNag1591
aa(lp2790
NaNaNaNaNaNag1591
aag355
aa(lp2791
(lp2792
g1586
ag1586
aI1
aI1
ag6
ag7
ag8
aa(lp2793
NaNaNaNaNaNag1591
aa(lp2794
g1586
ag1589
aI1
aI1
ag6
ag7
ag8
aa(lp2795
g1604
ag1589
aI1
aI1
ag6
ag7
ag8
aa(lp2796
NaNaNaNaNaNag1591
aa(lp2797
NaNaNaNaNaNag1591
aa(lp2798
g1586
ag1596
aI1
aI1
ag6
ag7
ag8
aa(lp2799
NaNaNaNaNaNag1591
aa(lp2800
NaNaNaNaNaNag1591
aag1027
aa(lp2801
(lp2802
g1586
ag1586
aI1
aI1
ag6
ag7
ag8
aa(lp2803
NaNaNaNaNaNag1591
aa(lp2804
g1586
ag1589
aI1
aI1
ag6
ag7
ag8
aa(lp2805
g1604
ag1589
aI1
aI1
ag6
ag7
ag8
aa(lp2806
NaNaNaNaNaNag1591
aa(lp2807
g1604
ag1596
aI1
aI1
ag30
ag7
ag8
aa(lp2808
g1586
ag1596
aI1
aI1
ag6
ag7
ag8
aa(lp2809
NaNaNaNaNaNag1591
aa(lp2810
NaNaNaNaNaNag1591
aag607
aa(lp2811
(lp2812
g1586
ag1586
aI1
aI1
ag6
ag7
ag8
aa(lp2813
NaNaNaNaNaNag1591
aa(lp2814
g1586
ag1589
aI1
aI1
ag6
ag7
ag8
aa(lp2815
g1604
ag1589
aI1
aI1
ag6
ag7
ag8
aa(lp2816
g1604
ag1586
aI1
aI1
ag30
ag7
ag8
aa(lp2817
NaNaNaNaNaNag1591
aa(lp2818
g1586
ag1596
aI1
aI1
ag6
ag7
ag8
aa(lp2819
NaNaNaNaNaNag1591
aa(lp2820
NaNaNaNaNaNag1591
aag1279
aa(lp2821
(lp2822
g1586
ag1586
aI1
aI1
ag6
ag7
ag8
aa(lp2823
NaNaNaNaNaNag1591
aa(lp2824
g1586
ag1589
aI1
aI1
ag6
ag7
ag8
aa(lp2825
g1604
ag1589
aI1
aI1
ag6
ag7
ag8
aa(lp2826
g1604
ag1586
aI1
aI1
ag30
ag7
ag8
aa(lp2827
NaNaNaNaNaNag1591
aa(lp2828
g1586
ag1596
aI1
aI1
ag6
ag7
ag8
aa(lp2829
NaNaNaNaNaNag1591
aa(lp2830
NaNaNaNaNaNag1591
aag1111
aa(lp2831
(lp2832
g1586
ag1586
aI1
aI1
ag6
ag7
ag8
aa(lp2833
NaNaNaNaNaNag1591
aa(lp2834
g1586
ag1589
aI1
aI1
ag6
ag7
ag8
aa(lp2835
g1604
ag1589
aI1
aI1
ag6
ag7
ag8
aa(lp2836
g1604
ag1586
aI1
aI1
ag30
ag7
ag8
aa(lp2837
NaNaNaNaNaNag1591
aa(lp2838
g1586
ag1596
aI1
aI1
ag6
ag7
ag8
aa(lp2839
NaNaNaNaNaNag1591
aa(lp2840
NaNaNaNaNaNag1591
aag943
aa(lp2841
(lp2842
g1586
ag1586
aI1
aI1
ag6
ag7
ag8
aa(lp2843
g1588
ag1589
aI1
aI1
ag30
ag7
ag8
aa(lp2844
NaNaNaNaNaNag1591
aa(lp2845
g1604
ag1589
aI1
aI1
ag6
ag7
ag8
aa(lp2846
g1604
ag1586
aI1
aI1
ag6
ag7
ag8
aa(lp2847
g1604
ag1596
aI1
aI1
ag6
ag7
ag8
aa(lp2848
g1586
ag1596
aI1
aI1
ag265
ag7
ag8
aa(lp2849
NaNaNaNaNaNag1591
aa(lp2850
NaNaNaNaNaNag1591
aag1447
aa(lp2851
(lp2852
g1586
ag1586
aI1
aI1
ag6
ag7
ag8
aa(lp2853
g1588
ag1589
aI1
aI1
ag30
ag7
ag8
aa(lp2854
NaNaNaNaNaNag1591
aa(lp2855
g1604
ag1589
aI1
aI1
ag6
ag7
ag8
aa(lp2856
g1604
ag1586
aI1
aI1
ag6
ag7
ag8
aa(lp2857
g1604
ag1596
aI1
aI1
ag6
ag7
ag8
aa(lp2858
g1586
ag1596
aI1
aI1
ag265
ag7
ag8
aa(lp2859
NaNaNaNaNaNag1591
aa(lp2860
NaNaNaNaNaNag1591
aag439
aa(lp2861
(lp2862
g1586
ag1586
aI1
aI1
ag6
ag7
ag8
aa(lp2863
g1588
ag1589
aI1
aI1
ag30
ag7
ag8
aa(lp2864
NaNaNaNaNaNag1591
aa(lp2865
g1604
ag1589
aI1
aI1
ag6
ag7
ag8
aa(lp2866
g1604
ag1586
aI1
aI1
ag6
ag7
ag8
aa(lp2867
g1604
ag1596
aI1
aI1
ag6
ag7
ag8
aa(lp2868
g1586
ag1596
aI1
aI1
ag265
ag7
ag8
aa(lp2869
NaNaNaNaNaNag1591
aa(lp2870
NaNaNaNaNaNag1591
aag355
aa(lp2871
(lp2872
g1586
ag1586
aI1
aI1
ag6
ag7
ag8
aa(lp2873
g1588
ag1589
aI1
aI1
ag30
ag7
ag8
aa(lp2874
NaNaNaNaNaNag1591
aa(lp2875
g1604
ag1589
aI1
aI1
ag6
ag7
ag8
aa(lp2876
g1604
ag1586
aI1
aI1
ag6
ag7
ag8
aa(lp2877
g1604
ag1596
aI1
aI1
ag6
ag7
ag8
aa(lp2878
g1586
ag1596
aI1
aI1
ag265
ag7
ag8
aa(lp2879
NaNaNaNaNaNag1591
aa(lp2880
NaNaNaNaNaNag1591
aag271
aa(lp2881
(lp2882
g1586
ag1586
aI1
aI1
ag6
ag7
ag8
aa(lp2883
g1588
ag1589
aI1
aI1
ag30
ag7
ag8
aa(lp2884
g1586
ag1589
aI1
aI1
ag265
ag7
ag8
aa(lp2885
g1604
ag1589
aI1
aI1
ag6
ag7
ag8
aa(lp2886
g1604
ag1586
aI1
aI1
ag6
ag7
ag8
aa(lp2887
NaNaNaNaNaNag1591
aa(lp2888
NaNaNaNaNaNag1591
aa(lp2889
NaNaNaNaNaNag1591
aa(lp2890
g1588
ag1586
aI1
aI1
ag6
ag7
ag8
aag859
aa(lp2891
(lp2892
g1586
ag1586
aI1
aI1
ag6
ag7
ag8
aa(lp2893
g1588
ag1589
aI1
aI1
ag30
ag7
ag8
aa(lp2894
g1586
ag1589
aI1
aI1
ag265
ag7
ag8
aa(lp2895
g1604
ag1589
aI1
aI1
ag6
ag7
ag8
aa(lp2896
g1604
ag1586
aI1
aI1
ag6
ag7
ag8
aa(lp2897
NaNaNaNaNaNag1591
aa(lp2898
NaNaNaNaNaNag1591
aa(lp2899
NaNaNaNaNaNag1591
aa(lp2900
g1588
ag1586
aI1
aI1
ag6
ag7
ag8
aag1363
aa(lp2901
(lp2902
g1586
ag1586
aI1
aI1
ag6
ag7
ag8
aa(lp2903
g1588
ag1589
aI1
aI1
ag30
ag7
ag8
aa(lp2904
g1586
ag1589
aI1
aI1
ag265
ag7
ag8
aa(lp2905
g1604
ag1589
aI1
aI1
ag6
ag7
ag8
aa(lp2906
g1604
ag1586
aI1
aI1
ag6
ag7
ag8
aa(lp2907
NaNaNaNaNaNag1591
aa(lp2908
NaNaNaNaNaNag1591
aa(lp2909
NaNaNaNaNaNag1591
aa(lp2910
g1588
ag1586
aI1
aI1
ag6
ag7
ag8
aag691
aa(lp2911
(lp2912
g1586
ag1586
aI1
aI1
ag6
ag7
ag8
aa(lp2913
g1588
ag1589
aI1
aI1
ag30
ag7
ag8
aa(lp2914
g1586
ag1589
aI1
aI1
ag6
ag7
ag8
aa(lp2915
NaNaNaNaNaNag1591
aa(lp2916
NaNaNaNaNaNag1591
aa(lp2917
NaNaNaNaNaNag1591
aa(lp2918
g1586
ag1596
aI1
aI1
ag6
ag7
ag8
aa(lp2919
g1588
ag1596
aI1
aI1
ag265
ag7
ag8
aa(lp2920
g1588
ag1586
aI1
aI1
ag6
ag7
ag8
aag1531
aa(lp2921
(lp2922
g1586
ag1586
aI1
aI1
ag6
ag7
ag8
aa(lp2923
g1588
ag1589
aI1
aI1
ag30
ag7
ag8
aa(lp2924
g1586
ag1589
aI1
aI1
ag6
ag7
ag8
aa(lp2925
NaNaNaNaNaNag1591
aa(lp2926
NaNaNaNaNaNag1591
aa(lp2927
NaNaNaNaNaNag1591
aa(lp2928
g1586
ag1596
aI1
aI1
ag6
ag7
ag8
aa(lp2929
g1588
ag1596
aI1
aI1
ag265
ag7
ag8
aa(lp2930
g1588
ag1586
aI1
aI1
ag6
ag7
ag8
aag523
aa(lp2931
(lp2932
g1586
ag1586
aI1
aI1
ag6
ag7
ag8
aa(lp2933
g1588
ag1589
aI1
aI1
ag265
ag7
ag8
aa(lp2934
g1586
ag1589
aI1
aI1
ag6
ag7
ag8
aa(lp2935
NaNaNaNaNaNag1591
aa(lp2936
NaNaNaNaNaNag1591
aa(lp2937
NaNaNaNaNaNag1591
aa(lp2938
NaNaNaNaNaNag1591
aa(lp2939
NaNaNaNaNaNag1591
aa(lp2940
g1588
ag1586
aI1
aI1
ag6
ag7
ag8
aag1447
aa(lp2941
(lp2942
g1586
ag1586
aI1
aI1
ag6
ag7
ag8
aa(lp2943
g1588
ag1589
aI1
aI1
ag265
ag7
ag8
aa(lp2944
g1586
ag1589
aI1
aI1
ag6
ag7
ag8
aa(lp2945
NaNaNaNaNaNag1591
aa(lp2946
NaNaNaNaNaNag1591
aa(lp2947
NaNaNaNaNaNag1591
aa(lp2948
NaNaNaNaNaNag1591
aa(lp2949
NaNaNaNaNaNag1591
aa(lp2950
g1588
ag1586
aI1
aI1
ag6
ag7
ag8
aag1531
aa(lp2951
(lp2952
g1586
ag1586
aI1
aI1
ag6
ag7
ag8
aa(lp2953
g1588
ag1589
aI1
aI1
ag265
ag7
ag8
aa(lp2954
g1586
ag1589
aI1
aI1
ag6
ag7
ag8
aa(lp2955
NaNaNaNaNaNag1591
aa(lp2956
NaNaNaNaNaNag1591
aa(lp2957
NaNaNaNaNaNag1591
aa(lp2958
NaNaNaNaNaNag1591
aa(lp2959
NaNaNaNaNaNag1591
aa(lp2960
g1588
ag1586
aI1
aI1
ag6
ag7
ag8
aag943
aa(lp2961
(lp2962
g1586
ag1586
aI1
aI1
ag6
ag7
ag8
aa(lp2963
g1588
ag1589
aI1
aI1
ag265
ag7
ag8
aa(lp2964
g1586
ag1589
aI1
aI1
ag6
ag7
ag8
aa(lp2965
NaNaNaNaNaNag1591
aa(lp2966
NaNaNaNaNaNag1591
aa(lp2967
NaNaNaNaNaNag1591
aa(lp2968
NaNaNaNaNaNag1591
aa(lp2969
NaNaNaNaNaNag1591
aa(lp2970
g1588
ag1586
aI1
aI1
ag6
ag7
ag8
aag1027
aa(lp2971
(lp2972
g1586
ag1586
aI1
aI1
ag6
ag7
ag8
aa(lp2973
g1588
ag1589
aI1
aI1
ag262
ag7
ag8
aa(lp2974
NaNaNaNaNaNag1591
aa(lp2975
g1604
ag1589
aI1
aI1
ag265
ag7
ag8
aa(lp2976
g1604
ag1586
aI1
aI1
ag6
ag7
ag8
aa(lp2977
NaNaNaNaNaNag1591
aa(lp2978
NaNaNaNaNaNag1591
aa(lp2979
NaNaNaNaNaNag1591
aa(lp2980
g1588
ag1586
aI1
aI1
ag6
ag7
ag8
aag1447
aa(lp2981
(lp2982
g1586
ag1586
aI1
aI1
ag6
ag7
ag8
aa(lp2983
g1588
ag1589
aI1
aI1
ag262
ag7
ag8
aa(lp2984
NaNaNaNaNaNag1591
aa(lp2985
g1604
ag1589
aI1
aI1
ag265
ag7
ag8
aa(lp2986
g1604
ag1586
aI1
aI1
ag6
ag7
ag8
aa(lp2987
NaNaNaNaNaNag1591
aa(lp2988
NaNaNaNaNaNag1591
aa(lp2989
NaNaNaNaNaNag1591
aa(lp2990
g1588
ag1586
aI1
aI1
ag6
ag7
ag8
aag1531
aa(lp2991
(lp2992
g1586
ag1586
aI1
aI1
ag6
ag7
ag8
aa(lp2993
g1588
ag1589
aI1
aI1
ag262
ag7
ag8
aa(lp2994
NaNaNaNaNaNag1591
aa(lp2995
g1604
ag1589
aI1
aI1
ag265
ag7
ag8
aa(lp2996
g1604
ag1586
aI1
aI1
ag6
ag7
ag8
aa(lp2997
NaNaNaNaNaNag1591
aa(lp2998
NaNaNaNaNaNag1591
aa(lp2999
NaNaNaNaNaNag1591
aa(lp3000
g1588
ag1586
aI1
aI1
ag6
ag7
ag8
aag943
aa(lp3001
(lp3002
g1586
ag1586
aI1
aI1
ag6
ag7
ag8
aa(lp3003
g1588
ag1589
aI1
aI1
ag262
ag7
ag8
aa(lp3004
NaNaNaNaNaNag1591
aa(lp3005
g1604
ag1589
aI1
aI1
ag265
ag7
ag8
aa(lp3006
g1604
ag1586
aI1
aI1
ag6
ag7
ag8
aa(lp3007
NaNaNaNaNaNag1591
aa(lp3008
NaNaNaNaNaNag1591
aa(lp3009
NaNaNaNaNaNag1591
aa(lp3010
g1588
ag1586
aI1
aI1
ag6
ag7
ag8
aag1027
aa(lp3011
(lp3012
g1586
ag1586
aI1
aI1
ag6
ag7
ag8
aa(lp3013
g1588
ag1589
aI1
aI1
ag262
ag7
ag8
aa(lp3014
g1586
ag1589
aI1
aI1
ag30
ag7
ag8
aa(lp3015
g1604
ag1589
aI1
aI1
ag265
ag7
ag8
aa(lp3016
g1604
ag1586
aI1
aI1
ag6
ag7
ag8
aa(lp3017
NaNaNaNaNaNag1591
aa(lp3018
NaNaNaNaNaNag1591
aa(lp3019
NaNaNaNaNaNag1591
aa(lp3020
g1588
ag1586
aI1
aI1
ag6
ag7
ag8
aag859
aa(lp3021
(lp3022
g1586
ag1586
aI1
aI1
ag6
ag7
ag8
aa(lp3023
g1588
ag1589
aI1
aI1
ag262
ag7
ag8
aa(lp3024
g1586
ag1589
aI1
aI1
ag30
ag7
ag8
aa(lp3025
g1604
ag1589
aI1
aI1
ag265
ag7
ag8
aa(lp3026
g1604
ag1586
aI1
aI1
ag6
ag7
ag8
aa(lp3027
NaNaNaNaNaNag1591
aa(lp3028
NaNaNaNaNaNag1591
aa(lp3029
NaNaNaNaNaNag1591
aa(lp3030
g1588
ag1586
aI1
aI1
ag6
ag7
ag8
aag1363
aa(lp3031
(lp3032
g1586
ag1586
aI1
aI1
ag6
ag7
ag8
aa(lp3033
g1588
ag1589
aI1
aI1
ag262
ag7
ag8
aa(lp3034
g1586
ag1589
aI1
aI1
ag30
ag7
ag8
aa(lp3035
g1604
ag1589
aI1
aI1
ag265
ag7
ag8
aa(lp3036
g1604
ag1586
aI1
aI1
ag6
ag7
ag8
aa(lp3037
NaNaNaNaNaNag1591
aa(lp3038
NaNaNaNaNaNag1591
aa(lp3039
NaNaNaNaNaNag1591
aa(lp3040
g1588
ag1586
aI1
aI1
ag6
ag7
ag8
aag691
aa(lp3041
(lp3042
g1586
ag1586
aI1
aI1
ag6
ag7
ag8
aa(lp3043
g1588
ag1589
aI1
aI1
ag6
ag7
ag8
aa(lp3044
g1586
ag1589
aI1
aI1
ag262
ag7
ag8
aa(lp3045
NaNaNaNaNaNag1591
aa(lp3046
g1604
ag1586
aI1
aI1
ag6
ag7
ag8
aa(lp3047
NaNaNaNaNaNag1591
aa(lp3048
NaNaNaNaNaNag1591
aa(lp3049
NaNaNaNaNaNag1591
aa(lp3050
g1588
ag1586
aI1
aI1
ag6
ag7
ag8
aag1447
aa(lp3051
(lp3052
g1586
ag1586
aI1
aI1
ag6
ag7
ag8
aa(lp3053
g1588
ag1589
aI1
aI1
ag6
ag7
ag8
aa(lp3054
g1586
ag1589
aI1
aI1
ag262
ag7
ag8
aa(lp3055
NaNaNaNaNaNag1591
aa(lp3056
g1604
ag1586
aI1
aI1
ag6
ag7
ag8
aa(lp3057
NaNaNaNaNaNag1591
aa(lp3058
NaNaNaNaNaNag1591
aa(lp3059
NaNaNaNaNaNag1591
aa(lp3060
g1588
ag1586
aI1
aI1
ag6
ag7
ag8
aag1531
aa(lp3061
(lp3062
g1586
ag1586
aI1
aI1
ag6
ag7
ag8
aa(lp3063
g1588
ag1589
aI1
aI1
ag6
ag7
ag8
aa(lp3064
g1586
ag1589
aI1
aI1
ag262
ag7
ag8
aa(lp3065
NaNaNaNaNaNag1591
aa(lp3066
g1604
ag1586
aI1
aI1
ag6
ag7
ag8
aa(lp3067
NaNaNaNaNaNag1591
aa(lp3068
NaNaNaNaNaNag1591
aa(lp3069
NaNaNaNaNaNag1591
aa(lp3070
g1588
ag1586
aI1
aI1
ag6
ag7
ag8
aag943
aa(lp3071
(lp3072
g1586
ag1586
aI1
aI1
ag6
ag7
ag8
aa(lp3073
g1588
ag1589
aI1
aI1
ag6
ag7
ag8
aa(lp3074
g1586
ag1589
aI1
aI1
ag262
ag7
ag8
aa(lp3075
NaNaNaNaNaNag1591
aa(lp3076
g1604
ag1586
aI1
aI1
ag6
ag7
ag8
aa(lp3077
NaNaNaNaNaNag1591
aa(lp3078
NaNaNaNaNaNag1591
aa(lp3079
NaNaNaNaNaNag1591
aa(lp3080
g1588
ag1586
aI1
aI1
ag6
ag7
ag8
aag1027
aa(lp3081
(lp3082
g1586
ag1586
aI1
aI1
ag6
ag7
ag8
aa(lp3083
g1588
ag1589
aI1
aI1
ag6
ag7
ag8
aa(lp3084
g1586
ag1589
aI1
aI1
ag262
ag7
ag8
aa(lp3085
g1604
ag1589
aI1
aI1
ag30
ag7
ag8
aa(lp3086
g1604
ag1586
aI1
aI1
ag6
ag7
ag8
aa(lp3087
NaNaNaNaNaNag1591
aa(lp3088
NaNaNaNaNaNag1591
aa(lp3089
NaNaNaNaNaNag1591
aa(lp3090
g1588
ag1586
aI1
aI1
ag6
ag7
ag8
aag859
aa(lp3091
(lp3092
g1586
ag1586
aI1
aI1
ag6
ag7
ag8
aa(lp3093
g1588
ag1589
aI1
aI1
ag6
ag7
ag8
aa(lp3094
g1586
ag1589
aI1
aI1
ag262
ag7
ag8
aa(lp3095
g1604
ag1589
aI1
aI1
ag30
ag7
ag8
aa(lp3096
g1604
ag1586
aI1
aI1
ag6
ag7
ag8
aa(lp3097
NaNaNaNaNaNag1591
aa(lp3098
NaNaNaNaNaNag1591
aa(lp3099
NaNaNaNaNaNag1591
aa(lp3100
g1588
ag1586
aI1
aI1
ag6
ag7
ag8
aag1363
aa(lp3101
(lp3102
g1586
ag1586
aI1
aI1
ag6
ag7
ag8
aa(lp3103
g1588
ag1589
aI1
aI1
ag6
ag7
ag8
aa(lp3104
g1586
ag1589
aI1
aI1
ag262
ag7
ag8
aa(lp3105
g1604
ag1589
aI1
aI1
ag30
ag7
ag8
aa(lp3106
g1604
ag1586
aI1
aI1
ag6
ag7
ag8
aa(lp3107
NaNaNaNaNaNag1591
aa(lp3108
NaNaNaNaNaNag1591
aa(lp3109
NaNaNaNaNaNag1591
aa(lp3110
g1588
ag1586
aI1
aI1
ag6
ag7
ag8
aag691
aa(lp3111
(lp3112
g1586
ag1586
aI1
aI1
ag6
ag7
ag8
aa(lp3113
g1588
ag1589
aI1
aI1
ag6
ag7
ag8
aa(lp3114
g1586
ag1589
aI1
aI1
ag6
ag7
ag8
aa(lp3115
NaNaNaNaNaNag1591
aa(lp3116
NaNaNaNaNaNag1591
aa(lp3117
NaNaNaNaNaNag1591
aa(lp3118
g1586
ag1596
aI1
aI1
ag6
ag7
ag8
aa(lp3119
g1588
ag1596
aI1
aI1
ag6
ag7
ag8
aa(lp3120
NaNaNaNaNaNag1591
aag1447
aa(lp3121
(lp3122
g1586
ag1586
aI1
aI1
ag6
ag7
ag8
aa(lp3123
g1588
ag1589
aI1
aI1
ag6
ag7
ag8
aa(lp3124
g1586
ag1589
aI1
aI1
ag6
ag7
ag8
aa(lp3125
NaNaNaNaNaNag1591
aa(lp3126
NaNaNaNaNaNag1591
aa(lp3127
NaNaNaNaNaNag1591
aa(lp3128
g1586
ag1596
aI1
aI1
ag6
ag7
ag8
aa(lp3129
g1588
ag1596
aI1
aI1
ag6
ag7
ag8
aa(lp3130
NaNaNaNaNaNag1591
aag439
aa(lp3131
(lp3132
g1586
ag1586
aI1
aI1
ag6
ag7
ag8
aa(lp3133
g1588
ag1589
aI1
aI1
ag6
ag7
ag8
aa(lp3134
g1586
ag1589
aI1
aI1
ag6
ag7
ag8
aa(lp3135
NaNaNaNaNaNag1591
aa(lp3136
NaNaNaNaNaNag1591
aa(lp3137
NaNaNaNaNaNag1591
aa(lp3138
g1586
ag1596
aI1
aI1
ag6
ag7
ag8
aa(lp3139
g1588
ag1596
aI1
aI1
ag6
ag7
ag8
aa(lp3140
NaNaNaNaNaNag1591
aag943
aa(lp3141
(lp3142
g1586
ag1586
aI1
aI1
ag6
ag7
ag8
aa(lp3143
g1588
ag1589
aI1
aI1
ag6
ag7
ag8
aa(lp3144
g1586
ag1589
aI1
aI1
ag6
ag7
ag8
aa(lp3145
NaNaNaNaNaNag1591
aa(lp3146
NaNaNaNaNaNag1591
aa(lp3147
NaNaNaNaNaNag1591
aa(lp3148
g1586
ag1596
aI1
aI1
ag6
ag7
ag8
aa(lp3149
g1588
ag1596
aI1
aI1
ag6
ag7
ag8
aa(lp3150
NaNaNaNaNaNag1591
aag1027
aa(lp3151
(lp3152
g1586
ag1586
aI1
aI1
ag6
ag7
ag8
aa(lp3153
g1588
ag1589
aI1
aI1
ag6
ag7
ag8
aa(lp3154
g1586
ag1589
aI1
aI1
ag6
ag7
ag8
aa(lp3155
NaNaNaNaNaNag1591
aa(lp3156
NaNaNaNaNaNag1591
aa(lp3157
NaNaNaNaNaNag1591
aa(lp3158
g1586
ag1596
aI1
aI1
ag6
ag7
ag8
aa(lp3159
g1588
ag1596
aI1
aI1
ag6
ag7
ag8
aa(lp3160
g1588
ag1586
aI1
aI1
ag30
ag7
ag8
aag1531
aa(lp3161
(lp3162
g1586
ag1586
aI1
aI1
ag6
ag7
ag8
aa(lp3163
g1588
ag1589
aI1
aI1
ag6
ag7
ag8
aa(lp3164
g1586
ag1589
aI1
aI1
ag6
ag7
ag8
aa(lp3165
NaNaNaNaNaNag1591
aa(lp3166
NaNaNaNaNaNag1591
aa(lp3167
NaNaNaNaNaNag1591
aa(lp3168
g1586
ag1596
aI1
aI1
ag6
ag7
ag8
aa(lp3169
g1588
ag1596
aI1
aI1
ag6
ag7
ag8
aa(lp3170
g1588
ag1586
aI1
aI1
ag30
ag7
ag8
aag523
aa(lp3171
(lp3172
g1586
ag1586
aI1
aI1
ag6
ag7
ag8
aa(lp3173
g1588
ag1589
aI1
aI1
ag6
ag7
ag8
aa(lp3174
g1586
ag1589
aI1
aI1
ag6
ag7
ag8
aa(lp3175
NaNaNaNaNaNag1591
aa(lp3176
NaNaNaNaNaNag1591
aa(lp3177
NaNaNaNaNaNag1591
aa(lp3178
g1586
ag1596
aI1
aI1
ag6
ag7
ag8
aa(lp3179
g1588
ag1596
aI1
aI1
ag6
ag7
ag8
aa(lp3180
g1588
ag1586
aI1
aI1
ag265
ag7
ag8
aag1447
aa(lp3181
(lp3182
g1586
ag1586
aI1
aI1
ag6
ag7
ag8
aa(lp3183
g1588
ag1589
aI1
aI1
ag6
ag7
ag8
aa(lp3184
g1586
ag1589
aI1
aI1
ag6
ag7
ag8
aa(lp3185
NaNaNaNaNaNag1591
aa(lp3186
NaNaNaNaNaNag1591
aa(lp3187
NaNaNaNaNaNag1591
aa(lp3188
g1586
ag1596
aI1
aI1
ag6
ag7
ag8
aa(lp3189
g1588
ag1596
aI1
aI1
ag6
ag7
ag8
aa(lp3190
g1588
ag1586
aI1
aI1
ag265
ag7
ag8
aag1531
aa(lp3191
(lp3192
g1586
ag1586
aI1
aI1
ag6
ag7
ag8
aa(lp3193
g1588
ag1589
aI1
aI1
ag6
ag7
ag8
aa(lp3194
g1586
ag1589
aI1
aI1
ag6
ag7
ag8
aa(lp3195
NaNaNaNaNaNag1591
aa(lp3196
NaNaNaNaNaNag1591
aa(lp3197
NaNaNaNaNaNag1591
aa(lp3198
g1586
ag1596
aI1
aI1
ag6
ag7
ag8
aa(lp3199
g1588
ag1596
aI1
aI1
ag6
ag7
ag8
aa(lp3200
g1588
ag1586
aI1
aI1
ag265
ag7
ag8
aag943
aa(lp3201
(lp3202
g1586
ag1586
aI1
aI1
ag6
ag7
ag8
aa(lp3203
g1588
ag1589
aI1
aI1
ag6
ag7
ag8
aa(lp3204
g1586
ag1589
aI1
aI1
ag6
ag7
ag8
aa(lp3205
NaNaNaNaNaNag1591
aa(lp3206
NaNaNaNaNaNag1591
aa(lp3207
NaNaNaNaNaNag1591
aa(lp3208
g1586
ag1596
aI1
aI1
ag6
ag7
ag8
aa(lp3209
g1588
ag1596
aI1
aI1
ag6
ag7
ag8
aa(lp3210
g1588
ag1586
aI1
aI1
ag265
ag7
ag8
aag1027
aasg39
(lp3211
(lp3212
(lp3213
g1586
ag1586
aI1
aI1
ag30
ag7
ag8
aa(lp3214
g1588
ag1589
aI1
aI1
ag6
ag7
ag8
aa(lp3215
g1586
ag1589
aI1
aI1
ag6
ag7
ag8
aa(lp3216
g1604
ag1589
aI1
aI1
ag6
ag7
ag8
aa(lp3217
NaNaNaNaNaNag1591
aa(lp3218
g1604
ag1596
aI1
aI1
ag6
ag7
ag8
aa(lp3219
NaNaNaNaNaNag1591
aa(lp3220
NaNaNaNaNaNag1591
aa(lp3221
NaNaNaNaNaNag1591
aag439
aa(lp3222
(lp3223
g1586
ag1586
aI1
aI1
ag30
ag7
ag8
aa(lp3224
g1588
ag1589
aI1
aI1
ag6
ag7
ag8
aa(lp3225
g1586
ag1589
aI1
aI1
ag6
ag7
ag8
aa(lp3226
g1604
ag1589
aI1
aI1
ag6
ag7
ag8
aa(lp3227
g1604
ag1586
aI1
aI1
ag6
ag7
ag8
aa(lp3228
g1604
ag1596
aI1
aI1
ag6
ag7
ag8
aa(lp3229
g1586
ag1596
aI1
aI1
ag6
ag7
ag8
aa(lp3230
NaNaNaNaNaNag1591
aa(lp3231
NaNaNaNaNaNag1591
aag1531
aasa(dp3232
g42
(lp3233
g1621
ag1681
ag1701
asg44
(lp3234
g1641
ag1671
asg37
(lp3235
g1631
ag1651
ag1661
ag1584
ag1691
ag1599
ag3212
ag1610
ag1711
ag3222
ag1721
ag1731
ag1741
ag1751
ag1761
ag1771
ag1781
ag1791
ag1801
ag1811
ag1821
ag1831
ag1841
ag1851
ag1861
ag1871
ag1881
ag1891
ag1901
ag1911
ag1921
ag1931
ag1941
ag1951
ag1961
ag1971
ag1981
ag1991
ag2001
ag2011
ag2021
ag2031
ag2041
ag2051
ag2061
ag2071
ag2081
ag2091
ag2101
ag2111
ag2121
ag2131
ag2141
ag2151
ag2161
ag2171
ag2181
ag2191
ag2201
ag2211
ag2221
ag2231
ag2241
ag2251
ag2261
ag2271
ag2281
ag2291
ag2301
ag2311
ag2321
ag2331
ag2341
ag2351
ag2361
ag2371
ag2381
ag2391
ag2401
ag2411
ag2421
ag2431
ag2441
ag2451
ag2461
ag2471
ag2481
ag2491
ag2501
ag2511
ag2521
ag2531
ag2541
ag2551
ag2561
ag2571
ag2581
ag2591
ag2601
ag2611
ag2621
ag2631
ag2641
ag2651
ag2661
ag2671
ag2681
ag2691
ag2701
ag2711
ag2721
ag2731
ag2741
ag2751
ag2761
ag2771
ag2781
ag2791
ag2801
ag2811
ag2821
ag2831
ag2841
ag2851
ag2861
ag2871
ag2881
ag2891
ag2901
ag2911
ag2921
ag2931
ag2941
ag2951
ag2961
ag2971
ag2981
ag2991
ag3001
ag3011
ag3021
ag3031
ag3041
ag3051
ag3061
ag3071
ag3081
ag3091
ag3101
ag3111
ag3121
ag3131
ag3141
ag3151
ag3161
ag3171
ag3181
ag3191
ag3201
asa(dp3236
I1
(lp3237
g1621
ag1631
ag1641
ag1651
ag1661
ag1671
ag1584
ag1681
ag1691
ag1599
ag1701
ag3212
ag1610
ag1711
ag3222
ag1721
ag1731
ag1741
ag1751
ag1761
ag1771
ag1781
ag1791
ag1801
ag1811
ag1821
ag1831
ag1841
ag1851
ag1861
ag1871
ag1881
ag1891
ag1901
ag1911
ag1921
ag1931
ag1941
ag1951
ag1961
ag1971
ag1981
ag1991
ag2001
ag2011
ag2021
ag2031
ag2041
ag2051
ag2061
ag2071
ag2081
ag2091
ag2101
ag2111
ag2121
ag2131
ag2141
ag2151
ag2161
ag2171
ag2181
ag2191
ag2201
ag2211
ag2221
ag2231
ag2241
ag2251
ag2261
ag2271
ag2281
ag2291
ag2301
ag2311
ag2321
ag2331
ag2341
ag2351
ag2361
ag2371
ag2381
ag2391
ag2401
ag2411
ag2421
ag2431
ag2441
ag2451
ag2461
ag2471
ag2481
ag2491
ag2501
ag2511
ag2521
ag2531
ag2541
ag2551
ag2561
ag2571
ag2581
ag2591
ag2601
ag2611
ag2621
ag2631
ag2641
ag2651
ag2661
ag2671
ag2681
ag2691
ag2701
ag2711
ag2721
ag2731
ag2741
ag2751
ag2761
ag2771
ag2781
ag2791
ag2801
ag2811
ag2821
ag2831
ag2841
ag2851
ag2861
ag2871
ag2881
ag2891
ag2901
ag2911
ag2921
ag2931
ag2941
ag2951
ag2961
ag2971
ag2981
ag2991
ag3001
ag3011
ag3021
ag3031
ag3041
ag3051
ag3061
ag3071
ag3081
ag3091
ag3101
ag3111
ag3121
ag3131
ag3141
ag3151
ag3161
ag3171
ag3181
ag3191
ag3201
asa(dp3238
I1
(lp3239
g1621
ag1631
ag1641
ag1651
ag1661
ag1671
ag1584
ag1681
ag1691
ag1599
ag1701
ag3212
ag1610
ag1711
ag3222
ag1721
ag1731
ag1741
ag1751
ag1761
ag1771
ag1781
ag1791
ag1801
ag1811
ag1821
ag1831
ag1841
ag1851
ag1861
ag1871
ag1881
ag1891
ag1901
ag1911
ag1921
ag1931
ag1941
ag1951
ag1961
ag1971
ag1981
ag1991
ag2001
ag2011
ag2021
ag2031
ag2041
ag2051
ag2061
ag2071
ag2081
ag2091
ag2101
ag2111
ag2121
ag2131
ag2141
ag2151
ag2161
ag2171
ag2181
ag2191
ag2201
ag2211
ag2221
ag2231
ag2241
ag2251
ag2261
ag2271
ag2281
ag2291
ag2301
ag2311
ag2321
ag2331
ag2341
ag2351
ag2361
ag2371
ag2381
ag2391
ag2401
ag2411
ag2421
ag2431
ag2441
ag2451
ag2461
ag2471
ag2481
ag2491
ag2501
ag2511
ag2521
ag2531
ag2541
ag2551
ag2561
ag2571
ag2581
ag2591
ag2601
ag2611
ag2621
ag2631
ag2641
ag2651
ag2661
ag2671
ag2681
ag2691
ag2701
ag2711
ag2721
ag2731
ag2741
ag2751
ag2761
ag2771
ag2781
ag2791
ag2801
ag2811
ag2821
ag2831
ag2841
ag2851
ag2861
ag2871
ag2881
ag2891
ag2901
ag2911
ag2921
ag2931
ag2941
ag2951
ag2961
ag2971
ag2981
ag2991
ag3001
ag3011
ag3021
ag3031
ag3041
ag3051
ag3061
ag3071
ag3081
ag3091
ag3101
ag3111
ag3121
ag3131
ag3141
ag3151
ag3161
ag3171
ag3181
ag3191
ag3201
asa(dp3240
g52
(lp3241
g1941
ag1951
ag1961
ag1971
ag1981
ag1991
ag2001
ag2011
ag2021
ag2031
ag2041
ag2051
ag2061
ag2071
ag2081
ag2091
ag2101
ag2111
ag2121
ag2131
ag2141
ag2151
ag2161
ag2171
ag2181
ag2191
ag2201
ag2211
ag2221
ag2231
ag2241
ag2251
ag2261
ag2271
ag2281
ag2291
ag2301
ag2311
ag2321
ag2331
ag2341
ag2351
ag2361
ag2371
ag2381
ag2391
ag2401
ag2411
ag2421
ag2431
ag2441
ag2451
ag2461
ag2471
ag2481
ag2491
ag2501
ag2511
ag2521
ag2531
ag2541
ag2551
ag2561
ag2571
ag2581
ag2591
ag2601
ag2611
ag2621
ag2631
ag2641
ag2651
ag2661
ag2671
ag2681
ag2691
ag2701
ag2711
ag2721
ag2731
ag2741
ag2751
ag2761
ag2771
ag2781
ag2791
ag2801
ag2811
ag2821
ag2831
ag2841
ag2851
ag2861
ag2871
ag2881
ag2891
ag2901
ag2911
ag2921
ag2931
ag2941
ag2951
ag2961
ag2971
ag2981
ag2991
ag3001
ag3011
ag3021
ag3031
ag3041
ag3051
ag3061
ag3071
ag3081
ag3091
ag3101
ag3111
ag3121
ag3131
ag3141
ag3151
ag3161
ag3171
ag3181
ag3191
ag3201
asg54
(lp3242
g1831
ag1841
ag1851
ag1861
ag1871
ag1881
ag1891
ag1901
ag1911
ag1921
ag1931
asg56
(lp3243
g1731
ag1741
ag1751
ag1761
ag1771
ag1781
ag1791
ag1801
ag1811
ag1821
asg58
(lp3244
g1621
ag1631
ag1641
ag1651
ag1661
ag1671
ag1584
ag1681
ag1691
ag1599
ag1701
ag3212
ag1610
ag1711
ag3222
ag1721
asa(dp3245
g61
(lp3246
g1621
ag1631
ag1641
ag1651
ag1661
ag1671
ag1584
ag1681
ag1691
ag1599
ag1701
ag3212
ag1610
ag1711
ag3222
ag1721
ag1731
ag1741
ag1751
ag1761
ag1771
ag1781
ag1791
ag1801
ag1811
ag1821
ag1831
ag1841
ag1851
ag1861
ag1871
ag1881
ag1891
ag1901
ag1911
ag1921
ag1931
ag1941
ag1951
ag1961
ag1971
ag1981
ag1991
ag2001
ag2011
ag2021
ag2031
ag2041
ag2051
ag2061
ag2071
ag2081
ag2091
ag2101
ag2111
ag2121
ag2131
ag2141
ag2151
ag2161
ag2171
ag2181
ag2191
ag2201
ag2211
ag2221
ag2231
ag2241
ag2251
ag2261
ag2271
ag2281
ag2291
ag2301
ag2311
ag2321
ag2331
ag2341
ag2351
ag2361
ag2371
ag2381
ag2391
ag2401
ag2411
ag2421
ag2431
ag2441
ag2451
ag2461
ag2471
ag2481
ag2491
ag2501
ag2511
ag2521
ag2531
ag2541
ag2551
ag2561
ag2571
ag2581
ag2591
ag2601
ag2611
ag2621
ag2631
ag2641
ag2651
ag2661
ag2671
ag2681
ag2691
ag2701
ag2711
ag2721
ag2731
ag2741
ag2751
ag2761
ag2771
ag2781
ag2791
ag2801
ag2811
ag2821
ag2831
ag2841
ag2851
ag2861
ag2871
ag2881
ag2891
ag2901
ag2911
ag2921
ag2931
ag2941
ag2951
ag2961
ag2971
ag2981
ag2991
ag3001
ag3011
ag3021
ag3031
ag3041
ag3051
ag3061
ag3071
ag3081
ag3091
ag3101
ag3111
ag3121
ag3131
ag3141
ag3151
ag3161
ag3171
ag3181
ag3191
ag3201
asa(dp3247
g64
(lp3248
sg66
(lp3249
g1621
ag1631
ag1641
ag1651
ag1661
ag1671
ag1584
ag1681
ag1691
ag1599
ag1701
ag3212
ag1610
ag1711
ag3222
ag1721
ag1731
ag1741
ag1751
ag1761
ag1771
ag1781
ag1791
ag1801
ag1811
ag1821
ag1831
ag1841
ag1851
ag1861
ag1871
ag1881
ag1891
ag1901
ag1911
ag1921
ag1931
ag1941
ag1951
ag1961
ag1971
ag1981
ag1991
ag2001
ag2011
ag2021
ag2031
ag2041
ag2051
ag2061
ag2071
ag2081
ag2091
ag2101
ag2111
ag2121
ag2131
ag2141
ag2151
ag2161
ag2171
ag2181
ag2191
ag2201
ag2211
ag2221
ag2231
ag2241
ag2251
ag2261
ag2271
ag2281
ag2291
ag2301
ag2311
ag2321
ag2331
ag2341
ag2351
ag2361
ag2371
ag2381
ag2391
ag2401
ag2411
ag2421
ag2431
ag2441
ag2451
ag2461
ag2471
ag2481
ag2491
ag2501
ag2511
ag2521
ag2531
ag2541
ag2551
ag2561
ag2571
ag2581
ag2591
ag2601
ag2611
ag2621
ag2631
ag2641
ag2651
ag2661
ag2671
ag2681
ag2691
ag2701
ag2711
ag2721
ag2731
ag2741
ag2751
ag2761
ag2771
ag2781
ag2791
ag2801
ag2811
ag2821
ag2831
ag2841
ag2851
ag2861
ag2871
ag2881
ag2891
ag2901
ag2911
ag2921
ag2931
ag2941
ag2951
ag2961
ag2971
ag2981
ag2991
ag3001
ag3011
ag3021
ag3031
ag3041
ag3051
ag3061
ag3071
ag3081
ag3091
ag3101
ag3111
ag3121
ag3131
ag3141
ag3151
ag3161
ag3171
ag3181
ag3191
ag3201
asa(dp3250
I10
(lp3251
(dp3252
I0
(lp3253
(lp3254
g1586
ag1586
aI1
aI1
ag6
ag7
ag8
aa(lp3255
NaNaNaNaNaNag1591
aa(lp3256
NaNaNaNaNaNag1591
aa(lp3257
NaNaNaNaNaNag1591
aa(lp3258
g1604
ag1586
aI1
aI1
ag6
ag7
ag8
aa(lp3259
NaNaNaNaNaNag1591
aa(lp3260
g1586
ag1596
aI1
aI1
ag6
ag7
ag8
aa(lp3261
NaNaNaNaNaNag1591
aa(lp3262
NaNaNaNaNaNag1591
aag1363
asI1
(lp3263
(lp3264
g1586
ag1586
aI1
aI1
ag6
ag7
ag8
aa(lp3265
NaNaNaNaNaNag1591
aa(lp3266
NaNaNaNaNaNag1591
aa(lp3267
NaNaNaNaNaNag1591
aa(lp3268
g1604
ag1586
aI1
aI1
ag6
ag7
ag8
aa(lp3269
NaNaNaNaNaNag1591
aa(lp3270
NaNaNaNaNaNag1591
aa(lp3271
g1588
ag1596
aI1
aI1
ag6
ag7
ag8
aa(lp3272
g1588
ag1586
aI1
aI1
ag6
ag7
ag8
aag1363
asI2
(lp3273
(lp3274
g1586
ag1586
aI1
aI1
ag6
ag7
ag8
aa(lp3275
NaNaNaNaNaNag1591
aa(lp3276
NaNaNaNaNaNag1591
aa(lp3277
NaNaNaNaNaNag1591
aa(lp3278
g1604
ag1586
aI1
aI1
ag6
ag7
ag8
aa(lp3279
NaNaNaNaNaNag1591
aa(lp3280
NaNaNaNaNaNag1591
aa(lp3281
NaNaNaNaNaNag1591
aa(lp3282
g1588
ag1586
aI1
aI1
ag6
ag7
ag8
aag1363
asI3
(lp3283
(lp3284
g1586
ag1586
aI1
aI1
ag6
ag7
ag8
aa(lp3285
NaNaNaNaNaNag1591
aa(lp3286
NaNaNaNaNaNag1591
aa(lp3287
NaNaNaNaNaNag1591
aa(lp3288
g1604
ag1586
aI1
aI1
ag6
ag7
ag8
aa(lp3289
g1604
ag1596
aI1
aI1
ag6
ag7
ag8
aa(lp3290
NaNaNaNaNaNag1591
aa(lp3291
NaNaNaNaNaNag1591
aa(lp3292
g1588
ag1586
aI1
aI1
ag6
ag7
ag8
aag1363
asI4
(lp3293
(lp3294
g1586
ag1586
aI1
aI1
ag6
ag7
ag8
aa(lp3295
NaNaNaNaNaNag1591
aa(lp3296
NaNaNaNaNaNag1591
aa(lp3297
NaNaNaNaNaNag1591
aa(lp3298
NaNaNaNaNaNag1591
aa(lp3299
NaNaNaNaNaNag1591
aa(lp3300
g1586
ag1596
aI1
aI1
ag6
ag7
ag8
aa(lp3301
NaNaNaNaNaNag1591
aa(lp3302
g1588
ag1586
aI1
aI1
ag6
ag7
ag8
aag1363
asI5
(lp3303
(lp3304
g1586
ag1586
aI1
aI1
ag6
ag7
ag8
aa(lp3305
NaNaNaNaNaNag1591
aa(lp3306
g1586
ag1589
aI1
aI1
ag6
ag7
ag8
aa(lp3307
g1604
ag1589
aI1
aI1
ag6
ag7
ag8
aa(lp3308
NaNaNaNaNaNag1591
aa(lp3309
NaNaNaNaNaNag1591
aa(lp3310
g1586
ag1596
aI1
aI1
ag6
ag7
ag8
aa(lp3311
NaNaNaNaNaNag1591
aa(lp3312
NaNaNaNaNaNag1591
aag1363
asI6
(lp3313
(lp3314
g1586
ag1586
aI1
aI1
ag6
ag7
ag8
aa(lp3315
g1588
ag1589
aI1
aI1
ag6
ag7
ag8
aa(lp3316
g1586
ag1589
aI1
aI1
ag6
ag7
ag8
aa(lp3317
NaNaNaNaNaNag1591
aa(lp3318
NaNaNaNaNaNag1591
aa(lp3319
NaNaNaNaNaNag1591
aa(lp3320
g1586
ag1596
aI1
aI1
ag6
ag7
ag8
aa(lp3321
g1588
ag1596
aI1
aI1
ag6
ag7
ag8
aa(lp3322
NaNaNaNaNaNag1591
aag1363
asI7
(lp3323
(lp3324
g1586
ag1586
aI1
aI1
ag6
ag7
ag8
aa(lp3325
NaNaNaNaNaNag1591
aa(lp3326
g1586
ag1589
aI1
aI1
ag6
ag7
ag8
aa(lp3327
NaNaNaNaNaNag1591
aa(lp3328
NaNaNaNaNaNag1591
aa(lp3329
g1604
ag1596
aI1
aI1
ag262
ag7
ag8
aa(lp3330
g1586
ag1596
aI1
aI1
ag6
ag7
ag8
aa(lp3331
NaNaNaNaNaNag1591
aa(lp3332
NaNaNaNaNaNag1591
aag1363
asI8
g2471
sI9
(lp3333
(lp3334
g1586
ag1586
aI1
aI1
ag6
ag7
ag8
aa(lp3335
NaNaNaNaNaNag1591
aa(lp3336
g1586
ag1589
aI1
aI1
ag6
ag7
ag8
aa(lp3337
NaNaNaNaNaNag1591
aa(lp3338
NaNaNaNaNaNag1591
aa(lp3339
NaNaNaNaNaNag1591
aa(lp3340
g1586
ag1596
aI1
aI1
ag6
ag7
ag8
aa(lp3341
g1588
ag1596
aI1
aI1
ag265
ag7
ag8
aa(lp3342
g1588
ag1586
aI1
aI1
ag6
ag7
ag8
aag1363
asI10
(lp3343
(lp3344
g1586
ag1586
aI1
aI1
ag6
ag7
ag8
aa(lp3345
NaNaNaNaNaNag1591
aa(lp3346
g1586
ag1589
aI1
aI1
ag6
ag7
ag8
aa(lp3347
NaNaNaNaNaNag1591
aa(lp3348
g1604
ag1586
aI1
aI1
ag262
ag7
ag8
aa(lp3349
g1604
ag1596
aI1
aI1
ag6
ag7
ag8
aa(lp3350
g1586
ag1596
aI1
aI1
ag6
ag7
ag8
aa(lp3351
NaNaNaNaNaNag1591
aa(lp3352
NaNaNaNaNaNag1591
aag1363
asI11
(lp3353
(lp3354
g1586
ag1586
aI1
aI1
ag6
ag7
ag8
aa(lp3355
g1588
ag1589
aI1
aI1
ag6
ag7
ag8
aa(lp3356
g1586
ag1589
aI1
aI1
ag6
ag7
ag8
aa(lp3357
NaNaNaNaNaNag1591
aa(lp3358
NaNaNaNaNaNag1591
aa(lp3359
NaNaNaNaNaNag1591
aa(lp3360
g1586
ag1596
aI1
aI1
ag6
ag7
ag8
aa(lp3361
g1588
ag1596
aI1
aI1
ag6
ag7
ag8
aa(lp3362
g1588
ag1586
aI1
aI1
ag265
ag7
ag8
aag1363
asI12
(lp3363
(lp3364
g1586
ag1586
aI1
aI1
ag6
ag7
ag8
aa(lp3365
NaNaNaNaNaNag1591
aa(lp3366
g1586
ag1589
aI1
aI1
ag6
ag7
ag8
aa(lp3367
g1604
ag1589
aI1
aI1
ag262
ag7
ag8
aa(lp3368
g1604
ag1586
aI1
aI1
ag6
ag7
ag8
aa(lp3369
NaNaNaNaNaNag1591
aa(lp3370
NaNaNaNaNaNag1591
aa(lp3371
NaNaNaNaNaNag1591
aa(lp3372
NaNaNaNaNaNag1591
aag1363
asI13
g3091
sI14
g3021
sI15
g2891
sI16
(lp3373
(lp3374
g1586
ag1586
aI1
aI1
ag6
ag7
ag8
aa(lp3375
g1588
ag1589
aI1
aI1
ag265
ag7
ag8
aa(lp3376
g1586
ag1589
aI1
aI1
ag6
ag7
ag8
aa(lp3377
NaNaNaNaNaNag1591
aa(lp3378
NaNaNaNaNaNag1591
aa(lp3379
NaNaNaNaNaNag1591
aa(lp3380
NaNaNaNaNaNag1591
aa(lp3381
NaNaNaNaNaNag1591
aa(lp3382
g1588
ag1586
aI1
aI1
ag6
ag7
ag8
aag1363
asI17
g1881
sI18
g1781
sI19
g1661
sasI-1
(lp3383
(dp3384
I0
(lp3385
(lp3386
g1586
ag1586
aI1
aI1
ag6
ag7
ag8
aa(lp3387
NaNaNaNaNaNag1591
aa(lp3388
NaNaNaNaNaNag1591
aa(lp3389
NaNaNaNaNaNag1591
aa(lp3390
g1604
ag1586
aI1
aI1
ag6
ag7
ag8
aa(lp3391
NaNaNaNaNaNag1591
aa(lp3392
g1586
ag1596
aI1
aI1
ag6
ag7
ag8
aa(lp3393
NaNaNaNaNaNag1591
aa(lp3394
NaNaNaNaNaNag1591
aag775
asI1
g2061
sI2
g2001
sI3
(lp3395
(lp3396
g1586
ag1586
aI1
aI1
ag6
ag7
ag8
aa(lp3397
NaNaNaNaNaNag1591
aa(lp3398
NaNaNaNaNaNag1591
aa(lp3399
NaNaNaNaNaNag1591
aa(lp3400
g1604
ag1586
aI1
aI1
ag6
ag7
ag8
aa(lp3401
g1604
ag1596
aI1
aI1
ag6
ag7
ag8
aa(lp3402
NaNaNaNaNaNag1591
aa(lp3403
NaNaNaNaNaNag1591
aa(lp3404
g1588
ag1586
aI1
aI1
ag6
ag7
ag8
aag775
asI4
(lp3405
(lp3406
g1586
ag1586
aI1
aI1
ag6
ag7
ag8
aa(lp3407
NaNaNaNaNaNag1591
aa(lp3408
NaNaNaNaNaNag1591
aa(lp3409
NaNaNaNaNaNag1591
aa(lp3410
NaNaNaNaNaNag1591
aa(lp3411
NaNaNaNaNaNag1591
aa(lp3412
g1586
ag1596
aI1
aI1
ag6
ag7
ag8
aa(lp3413
NaNaNaNaNaNag1591
aa(lp3414
g1588
ag1586
aI1
aI1
ag6
ag7
ag8
aag775
asI5
(lp3415
(lp3416
g1586
ag1586
aI1
aI1
ag6
ag7
ag8
aa(lp3417
NaNaNaNaNaNag1591
aa(lp3418
g1586
ag1589
aI1
aI1
ag6
ag7
ag8
aa(lp3419
g1604
ag1589
aI1
aI1
ag6
ag7
ag8
aa(lp3420
NaNaNaNaNaNag1591
aa(lp3421
NaNaNaNaNaNag1591
aa(lp3422
g1586
ag1596
aI1
aI1
ag6
ag7
ag8
aa(lp3423
NaNaNaNaNaNag1591
aa(lp3424
NaNaNaNaNaNag1591
aag775
asI6
(lp3425
(lp3426
g1586
ag1586
aI1
aI1
ag6
ag7
ag8
aa(lp3427
g1588
ag1589
aI1
aI1
ag6
ag7
ag8
aa(lp3428
g1586
ag1589
aI1
aI1
ag6
ag7
ag8
aa(lp3429
NaNaNaNaNaNag1591
aa(lp3430
NaNaNaNaNaNag1591
aa(lp3431
NaNaNaNaNaNag1591
aa(lp3432
g1586
ag1596
aI1
aI1
ag6
ag7
ag8
aa(lp3433
g1588
ag1596
aI1
aI1
ag6
ag7
ag8
aa(lp3434
NaNaNaNaNaNag1591
aag775
asI7
(lp3435
(lp3436
g1586
ag1586
aI1
aI1
ag6
ag7
ag8
aa(lp3437
NaNaNaNaNaNag1591
aa(lp3438
g1586
ag1589
aI1
aI1
ag6
ag7
ag8
aa(lp3439
NaNaNaNaNaNag1591
aa(lp3440
NaNaNaNaNaNag1591
aa(lp3441
g1604
ag1596
aI1
aI1
ag262
ag7
ag8
aa(lp3442
g1586
ag1596
aI1
aI1
ag6
ag7
ag8
aa(lp3443
NaNaNaNaNaNag1591
aa(lp3444
NaNaNaNaNaNag1591
aag775
asI8
g2431
sI9
(lp3445
(lp3446
g1586
ag1586
aI1
aI1
ag6
ag7
ag8
aa(lp3447
NaNaNaNaNaNag1591
aa(lp3448
g1586
ag1589
aI1
aI1
ag6
ag7
ag8
aa(lp3449
NaNaNaNaNaNag1591
aa(lp3450
NaNaNaNaNaNag1591
aa(lp3451
NaNaNaNaNaNag1591
aa(lp3452
g1586
ag1596
aI1
aI1
ag6
ag7
ag8
aa(lp3453
g1588
ag1596
aI1
aI1
ag265
ag7
ag8
aa(lp3454
g1588
ag1586
aI1
aI1
ag6
ag7
ag8
aag775
asI10
(lp3455
(lp3456
g1586
ag1586
aI1
aI1
ag6
ag7
ag8
aa(lp3457
NaNaNaNaNaNag1591
aa(lp3458
g1586
ag1589
aI1
aI1
ag6
ag7
ag8
aa(lp3459
NaNaNaNaNaNag1591
aa(lp3460
g1604
ag1586
aI1
aI1
ag262
ag7
ag8
aa(lp3461
g1604
ag1596
aI1
aI1
ag6
ag7
ag8
aa(lp3462
g1586
ag1596
aI1
aI1
ag6
ag7
ag8
aa(lp3463
NaNaNaNaNaNag1591
aa(lp3464
NaNaNaNaNaNag1591
aag775
asI11
(lp3465
(lp3466
g1586
ag1586
aI1
aI1
ag6
ag7
ag8
aa(lp3467
g1588
ag1589
aI1
aI1
ag6
ag7
ag8
aa(lp3468
g1586
ag1589
aI1
aI1
ag6
ag7
ag8
aa(lp3469
NaNaNaNaNaNag1591
aa(lp3470
NaNaNaNaNaNag1591
aa(lp3471
NaNaNaNaNaNag1591
aa(lp3472
g1586
ag1596
aI1
aI1
ag6
ag7
ag8
aa(lp3473
g1588
ag1596
aI1
aI1
ag6
ag7
ag8
aa(lp3474
g1588
ag1586
aI1
aI1
ag265
ag7
ag8
aag775
asI12
(lp3475
(lp3476
g1586
ag1586
aI1
aI1
ag6
ag7
ag8
aa(lp3477
NaNaNaNaNaNag1591
aa(lp3478
g1586
ag1589
aI1
aI1
ag6
ag7
ag8
aa(lp3479
g1604
ag1589
aI1
aI1
ag262
ag7
ag8
aa(lp3480
g1604
ag1586
aI1
aI1
ag6
ag7
ag8
aa(lp3481
NaNaNaNaNaNag1591
aa(lp3482
NaNaNaNaNaNag1591
aa(lp3483
NaNaNaNaNaNag1591
aa(lp3484
NaNaNaNaNaNag1591
aag775
asI13
(lp3485
(lp3486
g1586
ag1586
aI1
aI1
ag6
ag7
ag8
aa(lp3487
g1588
ag1589
aI1
aI1
ag6
ag7
ag8
aa(lp3488
g1586
ag1589
aI1
aI1
ag262
ag7
ag8
aa(lp3489
NaNaNaNaNaNag1591
aa(lp3490
g1604
ag1586
aI1
aI1
ag6
ag7
ag8
aa(lp3491
NaNaNaNaNaNag1591
aa(lp3492
NaNaNaNaNaNag1591
aa(lp3493
NaNaNaNaNaNag1591
aa(lp3494
g1588
ag1586
aI1
aI1
ag6
ag7
ag8
aag775
asI14
(lp3495
(lp3496
g1586
ag1586
aI1
aI1
ag6
ag7
ag8
aa(lp3497
g1588
ag1589
aI1
aI1
ag262
ag7
ag8
aa(lp3498
NaNaNaNaNaNag1591
aa(lp3499
g1604
ag1589
aI1
aI1
ag265
ag7
ag8
aa(lp3500
g1604
ag1586
aI1
aI1
ag6
ag7
ag8
aa(lp3501
NaNaNaNaNaNag1591
aa(lp3502
NaNaNaNaNaNag1591
aa(lp3503
NaNaNaNaNaNag1591
aa(lp3504
g1588
ag1586
aI1
aI1
ag6
ag7
ag8
aag775
asI15
(lp3505
(lp3506
g1586
ag1586
aI1
aI1
ag6
ag7
ag8
aa(lp3507
NaNaNaNaNaNag1591
aa(lp3508
g1586
ag1589
aI1
aI1
ag265
ag7
ag8
aa(lp3509
g1604
ag1589
aI1
aI1
ag6
ag7
ag8
aa(lp3510
g1604
ag1586
aI1
aI1
ag6
ag7
ag8
aa(lp3511
NaNaNaNaNaNag1591
aa(lp3512
NaNaNaNaNaNag1591
aa(lp3513
NaNaNaNaNaNag1591
aa(lp3514
g1588
ag1586
aI1
aI1
ag6
ag7
ag8
aag775
asI16
(lp3515
(lp3516
g1586
ag1586
aI1
aI1
ag6
ag7
ag8
aa(lp3517
g1588
ag1589
aI1
aI1
ag265
ag7
ag8
aa(lp3518
g1586
ag1589
aI1
aI1
ag6
ag7
ag8
aa(lp3519
NaNaNaNaNaNag1591
aa(lp3520
NaNaNaNaNaNag1591
aa(lp3521
NaNaNaNaNaNag1591
aa(lp3522
NaNaNaNaNaNag1591
aa(lp3523
NaNaNaNaNaNag1591
aa(lp3524
g1588
ag1586
aI1
aI1
ag6
ag7
ag8
aag775
asI17
g1901
sI18
g1801
sI19
g1621
sa(dp3525
I0
(lp3526
(lp3527
g1586
ag1586
aI1
aI1
ag6
ag7
ag8
aa(lp3528
NaNaNaNaNaNag1591
aa(lp3529
NaNaNaNaNaNag1591
aa(lp3530
NaNaNaNaNaNag1591
aa(lp3531
g1604
ag1586
aI1
aI1
ag6
ag7
ag8
aa(lp3532
NaNaNaNaNaNag1591
aa(lp3533
g1586
ag1596
aI1
aI1
ag6
ag7
ag8
aa(lp3534
NaNaNaNaNaNag1591
aa(lp3535
NaNaNaNaNaNag1591
aag859
asI1
(lp3536
(lp3537
g1586
ag1586
aI1
aI1
ag6
ag7
ag8
aa(lp3538
NaNaNaNaNaNag1591
aa(lp3539
NaNaNaNaNaNag1591
aa(lp3540
NaNaNaNaNaNag1591
aa(lp3541
g1604
ag1586
aI1
aI1
ag6
ag7
ag8
aa(lp3542
NaNaNaNaNaNag1591
aa(lp3543
NaNaNaNaNaNag1591
aa(lp3544
g1588
ag1596
aI1
aI1
ag6
ag7
ag8
aa(lp3545
g1588
ag1586
aI1
aI1
ag6
ag7
ag8
aag859
asI2
(lp3546
(lp3547
g1586
ag1586
aI1
aI1
ag6
ag7
ag8
aa(lp3548
NaNaNaNaNaNag1591
aa(lp3549
NaNaNaNaNaNag1591
aa(lp3550
NaNaNaNaNaNag1591
aa(lp3551
g1604
ag1586
aI1
aI1
ag6
ag7
ag8
aa(lp3552
NaNaNaNaNaNag1591
aa(lp3553
NaNaNaNaNaNag1591
aa(lp3554
NaNaNaNaNaNag1591
aa(lp3555
g1588
ag1586
aI1
aI1
ag6
ag7
ag8
aag859
asI3
(lp3556
(lp3557
g1586
ag1586
aI1
aI1
ag6
ag7
ag8
aa(lp3558
NaNaNaNaNaNag1591
aa(lp3559
NaNaNaNaNaNag1591
aa(lp3560
NaNaNaNaNaNag1591
aa(lp3561
g1604
ag1586
aI1
aI1
ag6
ag7
ag8
aa(lp3562
g1604
ag1596
aI1
aI1
ag6
ag7
ag8
aa(lp3563
NaNaNaNaNaNag1591
aa(lp3564
NaNaNaNaNaNag1591
aa(lp3565
g1588
ag1586
aI1
aI1
ag6
ag7
ag8
aag859
asI4
(lp3566
(lp3567
g1586
ag1586
aI1
aI1
ag6
ag7
ag8
aa(lp3568
NaNaNaNaNaNag1591
aa(lp3569
NaNaNaNaNaNag1591
aa(lp3570
NaNaNaNaNaNag1591
aa(lp3571
NaNaNaNaNaNag1591
aa(lp3572
NaNaNaNaNaNag1591
aa(lp3573
g1586
ag1596
aI1
aI1
ag6
ag7
ag8
aa(lp3574
NaNaNaNaNaNag1591
aa(lp3575
g1588
ag1586
aI1
aI1
ag6
ag7
ag8
aag859
asI5
(lp3576
(lp3577
g1586
ag1586
aI1
aI1
ag6
ag7
ag8
aa(lp3578
NaNaNaNaNaNag1591
aa(lp3579
g1586
ag1589
aI1
aI1
ag6
ag7
ag8
aa(lp3580
g1604
ag1589
aI1
aI1
ag6
ag7
ag8
aa(lp3581
NaNaNaNaNaNag1591
aa(lp3582
NaNaNaNaNaNag1591
aa(lp3583
g1586
ag1596
aI1
aI1
ag6
ag7
ag8
aa(lp3584
NaNaNaNaNaNag1591
aa(lp3585
NaNaNaNaNaNag1591
aag859
asI6
(lp3586
(lp3587
g1586
ag1586
aI1
aI1
ag6
ag7
ag8
aa(lp3588
g1588
ag1589
aI1
aI1
ag6
ag7
ag8
aa(lp3589
g1586
ag1589
aI1
aI1
ag6
ag7
ag8
aa(lp3590
NaNaNaNaNaNag1591
aa(lp3591
NaNaNaNaNaNag1591
aa(lp3592
NaNaNaNaNaNag1591
aa(lp3593
g1586
ag1596
aI1
aI1
ag6
ag7
ag8
aa(lp3594
g1588
ag1596
aI1
aI1
ag6
ag7
ag8
aa(lp3595
NaNaNaNaNaNag1591
aag859
asI7
(lp3596
(lp3597
g1586
ag1586
aI1
aI1
ag6
ag7
ag8
aa(lp3598
NaNaNaNaNaNag1591
aa(lp3599
g1586
ag1589
aI1
aI1
ag6
ag7
ag8
aa(lp3600
NaNaNaNaNaNag1591
aa(lp3601
NaNaNaNaNaNag1591
aa(lp3602
g1604
ag1596
aI1
aI1
ag262
ag7
ag8
aa(lp3603
g1586
ag1596
aI1
aI1
ag6
ag7
ag8
aa(lp3604
NaNaNaNaNaNag1591
aa(lp3605
NaNaNaNaNaNag1591
aag859
asI8
g2461
sI9
(lp3606
(lp3607
g1586
ag1586
aI1
aI1
ag6
ag7
ag8
aa(lp3608
NaNaNaNaNaNag1591
aa(lp3609
g1586
ag1589
aI1
aI1
ag6
ag7
ag8
aa(lp3610
NaNaNaNaNaNag1591
aa(lp3611
NaNaNaNaNaNag1591
aa(lp3612
NaNaNaNaNaNag1591
aa(lp3613
g1586
ag1596
aI1
aI1
ag6
ag7
ag8
aa(lp3614
g1588
ag1596
aI1
aI1
ag265
ag7
ag8
aa(lp3615
g1588
ag1586
aI1
aI1
ag6
ag7
ag8
aag859
asI10
(lp3616
(lp3617
g1586
ag1586
aI1
aI1
ag6
ag7
ag8
aa(lp3618
NaNaNaNaNaNag1591
aa(lp3619
g1586
ag1589
aI1
aI1
ag6
ag7
ag8
aa(lp3620
NaNaNaNaNaNag1591
aa(lp3621
g1604
ag1586
aI1
aI1
ag262
ag7
ag8
aa(lp3622
g1604
ag1596
aI1
aI1
ag6
ag7
ag8
aa(lp3623
g1586
ag1596
aI1
aI1
ag6
ag7
ag8
aa(lp3624
NaNaNaNaNaNag1591
aa(lp3625
NaNaNaNaNaNag1591
aag859
asI11
(lp3626
(lp3627
g1586
ag1586
aI1
aI1
ag6
ag7
ag8
aa(lp3628
g1588
ag1589
aI1
aI1
ag6
ag7
ag8
aa(lp3629
g1586
ag1589
aI1
aI1
ag6
ag7
ag8
aa(lp3630
NaNaNaNaNaNag1591
aa(lp3631
NaNaNaNaNaNag1591
aa(lp3632
NaNaNaNaNaNag1591
aa(lp3633
g1586
ag1596
aI1
aI1
ag6
ag7
ag8
aa(lp3634
g1588
ag1596
aI1
aI1
ag6
ag7
ag8
aa(lp3635
g1588
ag1586
aI1
aI1
ag265
ag7
ag8
aag859
asI12
(lp3636
(lp3637
g1586
ag1586
aI1
aI1
ag6
ag7
ag8
aa(lp3638
NaNaNaNaNaNag1591
aa(lp3639
g1586
ag1589
aI1
aI1
ag6
ag7
ag8
aa(lp3640
g1604
ag1589
aI1
aI1
ag262
ag7
ag8
aa(lp3641
g1604
ag1586
aI1
aI1
ag6
ag7
ag8
aa(lp3642
NaNaNaNaNaNag1591
aa(lp3643
NaNaNaNaNaNag1591
aa(lp3644
NaNaNaNaNaNag1591
aa(lp3645
NaNaNaNaNaNag1591
aag859
asI13
g3081
sI14
g3011
sI15
g2881
sI16
(lp3646
(lp3647
g1586
ag1586
aI1
aI1
ag6
ag7
ag8
aa(lp3648
g1588
ag1589
aI1
aI1
ag265
ag7
ag8
aa(lp3649
g1586
ag1589
aI1
aI1
ag6
ag7
ag8
aa(lp3650
NaNaNaNaNaNag1591
aa(lp3651
NaNaNaNaNaNag1591
aa(lp3652
NaNaNaNaNaNag1591
aa(lp3653
NaNaNaNaNaNag1591
aa(lp3654
NaNaNaNaNaNag1591
aa(lp3655
g1588
ag1586
aI1
aI1
ag6
ag7
ag8
aag859
asI17
g1871
sI18
g1771
sI19
g1651
sa(dp3656
I0
g2171
sI1
g2231
sI2
g2101
sI3
g2341
sI4
g1941
sI5
g2761
sI6
g3111
sI7
g2591
sI8
g2841
sI9
g2551
sI10
g2641
sI11
g3171
sI12
g2721
sI13
g3041
sI14
g2971
sI15
g2511
sI16
g2931
sI17
g1831
sI18
g1731
sI19
g1701
sa(dp3657
I0
g2181
sI1
g2071
sI2
g2211
sI3
g2381
sI4
g1981
sI5
g2771
sI6
g3151
sI7
g2601
sI8
g2491
sI9
g2911
sI10
g2651
sI11
g3181
sI12
g2731
sI13
g3051
sI14
g2981
sI15
g2521
sI16
g2941
sI17
g1841
sI18
g1741
sI19
g3222
sa(dp3658
I0
(lp3659
(lp3660
g1586
ag1586
aI1
aI1
ag6
ag7
ag8
aa(lp3661
NaNaNaNaNaNag1591
aa(lp3662
NaNaNaNaNaNag1591
aa(lp3663
NaNaNaNaNaNag1591
aa(lp3664
g1604
ag1586
aI1
aI1
ag6
ag7
ag8
aa(lp3665
NaNaNaNaNaNag1591
aa(lp3666
g1586
ag1596
aI1
aI1
ag6
ag7
ag8
aa(lp3667
NaNaNaNaNaNag1591
aa(lp3668
NaNaNaNaNaNag1591
aag439
asI1
g2241
sI2
g2111
sI3
g2351
sI4
g1951
sI5
(lp3669
(lp3670
g1586
ag1586
aI1
aI1
ag6
ag7
ag8
aa(lp3671
NaNaNaNaNaNag1591
aa(lp3672
g1586
ag1589
aI1
aI1
ag6
ag7
ag8
aa(lp3673
g1604
ag1589
aI1
aI1
ag6
ag7
ag8
aa(lp3674
NaNaNaNaNaNag1591
aa(lp3675
NaNaNaNaNaNag1591
aa(lp3676
g1586
ag1596
aI1
aI1
ag6
ag7
ag8
aa(lp3677
NaNaNaNaNaNag1591
aa(lp3678
NaNaNaNaNaNag1591
aag439
asI6
g3121
sI7
(lp3679
(lp3680
g1586
ag1586
aI1
aI1
ag6
ag7
ag8
aa(lp3681
NaNaNaNaNaNag1591
aa(lp3682
g1586
ag1589
aI1
aI1
ag6
ag7
ag8
aa(lp3683
NaNaNaNaNaNag1591
aa(lp3684
NaNaNaNaNaNag1591
aa(lp3685
g1604
ag1596
aI1
aI1
ag262
ag7
ag8
aa(lp3686
g1586
ag1596
aI1
aI1
ag6
ag7
ag8
aa(lp3687
NaNaNaNaNaNag1591
aa(lp3688
NaNaNaNaNaNag1591
aag439
asI8
g2851
sI9
g2561
sI10
(lp3689
(lp3690
g1586
ag1586
aI1
aI1
ag6
ag7
ag8
aa(lp3691
NaNaNaNaNaNag1591
aa(lp3692
g1586
ag1589
aI1
aI1
ag6
ag7
ag8
aa(lp3693
NaNaNaNaNaNag1591
aa(lp3694
g1604
ag1586
aI1
aI1
ag262
ag7
ag8
aa(lp3695
g1604
ag1596
aI1
aI1
ag6
ag7
ag8
aa(lp3696
g1586
ag1596
aI1
aI1
ag6
ag7
ag8
aa(lp3697
NaNaNaNaNaNag1591
aa(lp3698
NaNaNaNaNaNag1591
aag439
asI11
(lp3699
(lp3700
g1586
ag1586
aI1
aI1
ag6
ag7
ag8
aa(lp3701
g1588
ag1589
aI1
aI1
ag6
ag7
ag8
aa(lp3702
g1586
ag1589
aI1
aI1
ag6
ag7
ag8
aa(lp3703
NaNaNaNaNaNag1591
aa(lp3704
NaNaNaNaNaNag1591
aa(lp3705
NaNaNaNaNaNag1591
aa(lp3706
g1586
ag1596
aI1
aI1
ag6
ag7
ag8
aa(lp3707
g1588
ag1596
aI1
aI1
ag6
ag7
ag8
aa(lp3708
g1588
ag1586
aI1
aI1
ag265
ag7
ag8
aag439
asI12
(lp3709
(lp3710
g1586
ag1586
aI1
aI1
ag6
ag7
ag8
aa(lp3711
NaNaNaNaNaNag1591
aa(lp3712
g1586
ag1589
aI1
aI1
ag6
ag7
ag8
aa(lp3713
g1604
ag1589
aI1
aI1
ag262
ag7
ag8
aa(lp3714
g1604
ag1586
aI1
aI1
ag6
ag7
ag8
aa(lp3715
NaNaNaNaNaNag1591
aa(lp3716
NaNaNaNaNaNag1591
aa(lp3717
NaNaNaNaNaNag1591
aa(lp3718
NaNaNaNaNaNag1591
aag439
asI13
(lp3719
(lp3720
g1586
ag1586
aI1
aI1
ag6
ag7
ag8
aa(lp3721
g1588
ag1589
aI1
aI1
ag6
ag7
ag8
aa(lp3722
g1586
ag1589
aI1
aI1
ag262
ag7
ag8
aa(lp3723
NaNaNaNaNaNag1591
aa(lp3724
g1604
ag1586
aI1
aI1
ag6
ag7
ag8
aa(lp3725
NaNaNaNaNaNag1591
aa(lp3726
NaNaNaNaNaNag1591
aa(lp3727
NaNaNaNaNaNag1591
aa(lp3728
g1588
ag1586
aI1
aI1
ag6
ag7
ag8
aag439
asI14
(lp3729
(lp3730
g1586
ag1586
aI1
aI1
ag6
ag7
ag8
aa(lp3731
g1588
ag1589
aI1
aI1
ag262
ag7
ag8
aa(lp3732
NaNaNaNaNaNag1591
aa(lp3733
g1604
ag1589
aI1
aI1
ag265
ag7
ag8
aa(lp3734
g1604
ag1586
aI1
aI1
ag6
ag7
ag8
aa(lp3735
NaNaNaNaNaNag1591
aa(lp3736
NaNaNaNaNaNag1591
aa(lp3737
NaNaNaNaNaNag1591
aa(lp3738
g1588
ag1586
aI1
aI1
ag6
ag7
ag8
aag439
asI15
(lp3739
(lp3740
g1586
ag1586
aI1
aI1
ag6
ag7
ag8
aa(lp3741
NaNaNaNaNaNag1591
aa(lp3742
g1586
ag1589
aI1
aI1
ag265
ag7
ag8
aa(lp3743
g1604
ag1589
aI1
aI1
ag6
ag7
ag8
aa(lp3744
g1604
ag1586
aI1
aI1
ag6
ag7
ag8
aa(lp3745
NaNaNaNaNaNag1591
aa(lp3746
NaNaNaNaNaNag1591
aa(lp3747
NaNaNaNaNaNag1591
aa(lp3748
g1588
ag1586
aI1
aI1
ag6
ag7
ag8
aag439
asI16
(lp3749
(lp3750
g1586
ag1586
aI1
aI1
ag6
ag7
ag8
aa(lp3751
g1588
ag1589
aI1
aI1
ag265
ag7
ag8
aa(lp3752
g1586
ag1589
aI1
aI1
ag6
ag7
ag8
aa(lp3753
NaNaNaNaNaNag1591
aa(lp3754
NaNaNaNaNaNag1591
aa(lp3755
NaNaNaNaNaNag1591
aa(lp3756
NaNaNaNaNaNag1591
aa(lp3757
NaNaNaNaNaNag1591
aa(lp3758
g1588
ag1586
aI1
aI1
ag6
ag7
ag8
aag439
asI17
(lp3759
(lp3760
g1586
ag1586
aI1
aI1
ag262
ag7
ag8
aa(lp3761
g1588
ag1589
aI1
aI1
ag6
ag7
ag8
aa(lp3762
NaNaNaNaNaNag1591
aa(lp3763
NaNaNaNaNaNag1591
aa(lp3764
NaNaNaNaNaNag1591
aa(lp3765
g1604
ag1596
aI1
aI1
ag6
ag7
ag8
aa(lp3766
g1586
ag1596
aI1
aI1
ag6
ag7
ag8
aa(lp3767
g1588
ag1596
aI1
aI1
ag6
ag7
ag8
aa(lp3768
g1588
ag1586
aI1
aI1
ag6
ag7
ag8
aag439
asI18
(lp3769
(lp3770
g1586
ag1586
aI1
aI1
ag265
ag7
ag8
aa(lp3771
NaNaNaNaNaNag1591
aa(lp3772
g1586
ag1589
aI1
aI1
ag6
ag7
ag8
aa(lp3773
g1604
ag1589
aI1
aI1
ag6
ag7
ag8
aa(lp3774
g1604
ag1586
aI1
aI1
ag6
ag7
ag8
aa(lp3775
g1604
ag1596
aI1
aI1
ag6
ag7
ag8
aa(lp3776
g1586
ag1596
aI1
aI1
ag6
ag7
ag8
aa(lp3777
g1588
ag1596
aI1
aI1
ag6
ag7
ag8
aa(lp3778
NaNaNaNaNaNag1591
aag439
asI19
g3212
sa(dp3779
I0
(lp3780
(lp3781
g1586
ag1586
aI1
aI1
ag6
ag7
ag8
aa(lp3782
NaNaNaNaNaNag1591
aa(lp3783
NaNaNaNaNaNag1591
aa(lp3784
NaNaNaNaNaNag1591
aa(lp3785
g1604
ag1586
aI1
aI1
ag6
ag7
ag8
aa(lp3786
NaNaNaNaNaNag1591
aa(lp3787
g1586
ag1596
aI1
aI1
ag6
ag7
ag8
aa(lp3788
NaNaNaNaNaNag1591
aa(lp3789
NaNaNaNaNaNag1591
aag1195
asI1
(lp3790
(lp3791
g1586
ag1586
aI1
aI1
ag6
ag7
ag8
aa(lp3792
NaNaNaNaNaNag1591
aa(lp3793
NaNaNaNaNaNag1591
aa(lp3794
NaNaNaNaNaNag1591
aa(lp3795
g1604
ag1586
aI1
aI1
ag6
ag7
ag8
aa(lp3796
NaNaNaNaNaNag1591
aa(lp3797
NaNaNaNaNaNag1591
aa(lp3798
g1588
ag1596
aI1
aI1
ag6
ag7
ag8
aa(lp3799
g1588
ag1586
aI1
aI1
ag6
ag7
ag8
aag1195
asI2
(lp3800
(lp3801
g1586
ag1586
aI1
aI1
ag6
ag7
ag8
aa(lp3802
NaNaNaNaNaNag1591
aa(lp3803
NaNaNaNaNaNag1591
aa(lp3804
NaNaNaNaNaNag1591
aa(lp3805
g1604
ag1586
aI1
aI1
ag6
ag7
ag8
aa(lp3806
NaNaNaNaNaNag1591
aa(lp3807
NaNaNaNaNaNag1591
aa(lp3808
NaNaNaNaNaNag1591
aa(lp3809
g1588
ag1586
aI1
aI1
ag6
ag7
ag8
aag1195
asI3
(lp3810
(lp3811
g1586
ag1586
aI1
aI1
ag6
ag7
ag8
aa(lp3812
NaNaNaNaNaNag1591
aa(lp3813
NaNaNaNaNaNag1591
aa(lp3814
NaNaNaNaNaNag1591
aa(lp3815
g1604
ag1586
aI1
aI1
ag6
ag7
ag8
aa(lp3816
g1604
ag1596
aI1
aI1
ag6
ag7
ag8
aa(lp3817
NaNaNaNaNaNag1591
aa(lp3818
NaNaNaNaNaNag1591
aa(lp3819
g1588
ag1586
aI1
aI1
ag6
ag7
ag8
aag1195
asI4
(lp3820
(lp3821
g1586
ag1586
aI1
aI1
ag6
ag7
ag8
aa(lp3822
NaNaNaNaNaNag1591
aa(lp3823
NaNaNaNaNaNag1591
aa(lp3824
NaNaNaNaNaNag1591
aa(lp3825
NaNaNaNaNaNag1591
aa(lp3826
NaNaNaNaNaNag1591
aa(lp3827
g1586
ag1596
aI1
aI1
ag6
ag7
ag8
aa(lp3828
NaNaNaNaNaNag1591
aa(lp3829
g1588
ag1586
aI1
aI1
ag6
ag7
ag8
aag1195
asI5
(lp3830
(lp3831
g1586
ag1586
aI1
aI1
ag6
ag7
ag8
aa(lp3832
NaNaNaNaNaNag1591
aa(lp3833
g1586
ag1589
aI1
aI1
ag6
ag7
ag8
aa(lp3834
g1604
ag1589
aI1
aI1
ag6
ag7
ag8
aa(lp3835
NaNaNaNaNaNag1591
aa(lp3836
NaNaNaNaNaNag1591
aa(lp3837
g1586
ag1596
aI1
aI1
ag6
ag7
ag8
aa(lp3838
NaNaNaNaNaNag1591
aa(lp3839
NaNaNaNaNaNag1591
aag1195
asI6
(lp3840
(lp3841
g1586
ag1586
aI1
aI1
ag6
ag7
ag8
aa(lp3842
g1588
ag1589
aI1
aI1
ag6
ag7
ag8
aa(lp3843
g1586
ag1589
aI1
aI1
ag6
ag7
ag8
aa(lp3844
NaNaNaNaNaNag1591
aa(lp3845
NaNaNaNaNaNag1591
aa(lp3846
NaNaNaNaNaNag1591
aa(lp3847
g1586
ag1596
aI1
aI1
ag6
ag7
ag8
aa(lp3848
g1588
ag1596
aI1
aI1
ag6
ag7
ag8
aa(lp3849
NaNaNaNaNaNag1591
aag1195
asI7
(lp3850
(lp3851
g1586
ag1586
aI1
aI1
ag6
ag7
ag8
aa(lp3852
NaNaNaNaNaNag1591
aa(lp3853
g1586
ag1589
aI1
aI1
ag6
ag7
ag8
aa(lp3854
NaNaNaNaNaNag1591
aa(lp3855
NaNaNaNaNaNag1591
aa(lp3856
g1604
ag1596
aI1
aI1
ag262
ag7
ag8
aa(lp3857
g1586
ag1596
aI1
aI1
ag6
ag7
ag8
aa(lp3858
NaNaNaNaNaNag1591
aa(lp3859
NaNaNaNaNaNag1591
aag1195
asI8
g2441
sI9
(lp3860
(lp3861
g1586
ag1586
aI1
aI1
ag6
ag7
ag8
aa(lp3862
NaNaNaNaNaNag1591
aa(lp3863
g1586
ag1589
aI1
aI1
ag6
ag7
ag8
aa(lp3864
NaNaNaNaNaNag1591
aa(lp3865
NaNaNaNaNaNag1591
aa(lp3866
NaNaNaNaNaNag1591
aa(lp3867
g1586
ag1596
aI1
aI1
ag6
ag7
ag8
aa(lp3868
g1588
ag1596
aI1
aI1
ag265
ag7
ag8
aa(lp3869
g1588
ag1586
aI1
aI1
ag6
ag7
ag8
aag1195
asI10
(lp3870
(lp3871
g1586
ag1586
aI1
aI1
ag6
ag7
ag8
aa(lp3872
NaNaNaNaNaNag1591
aa(lp3873
g1586
ag1589
aI1
aI1
ag6
ag7
ag8
aa(lp3874
NaNaNaNaNaNag1591
aa(lp3875
g1604
ag1586
aI1
aI1
ag262
ag7
ag8
aa(lp3876
g1604
ag1596
aI1
aI1
ag6
ag7
ag8
aa(lp3877
g1586
ag1596
aI1
aI1
ag6
ag7
ag8
aa(lp3878
NaNaNaNaNaNag1591
aa(lp3879
NaNaNaNaNaNag1591
aag1195
asI11
(lp3880
(lp3881
g1586
ag1586
aI1
aI1
ag6
ag7
ag8
aa(lp3882
g1588
ag1589
aI1
aI1
ag6
ag7
ag8
aa(lp3883
g1586
ag1589
aI1
aI1
ag6
ag7
ag8
aa(lp3884
NaNaNaNaNaNag1591
aa(lp3885
NaNaNaNaNaNag1591
aa(lp3886
NaNaNaNaNaNag1591
aa(lp3887
g1586
ag1596
aI1
aI1
ag6
ag7
ag8
aa(lp3888
g1588
ag1596
aI1
aI1
ag6
ag7
ag8
aa(lp3889
g1588
ag1586
aI1
aI1
ag265
ag7
ag8
aag1195
asI12
(lp3890
(lp3891
g1586
ag1586
aI1
aI1
ag6
ag7
ag8
aa(lp3892
NaNaNaNaNaNag1591
aa(lp3893
g1586
ag1589
aI1
aI1
ag6
ag7
ag8
aa(lp3894
g1604
ag1589
aI1
aI1
ag262
ag7
ag8
aa(lp3895
g1604
ag1586
aI1
aI1
ag6
ag7
ag8
aa(lp3896
NaNaNaNaNaNag1591
aa(lp3897
NaNaNaNaNaNag1591
aa(lp3898
NaNaNaNaNaNag1591
aa(lp3899
NaNaNaNaNaNag1591
aag1195
asI13
(lp3900
(lp3901
g1586
ag1586
aI1
aI1
ag6
ag7
ag8
aa(lp3902
g1588
ag1589
aI1
aI1
ag6
ag7
ag8
aa(lp3903
g1586
ag1589
aI1
aI1
ag262
ag7
ag8
aa(lp3904
NaNaNaNaNaNag1591
aa(lp3905
g1604
ag1586
aI1
aI1
ag6
ag7
ag8
aa(lp3906
NaNaNaNaNaNag1591
aa(lp3907
NaNaNaNaNaNag1591
aa(lp3908
NaNaNaNaNaNag1591
aa(lp3909
g1588
ag1586
aI1
aI1
ag6
ag7
ag8
aag1195
asI14
(lp3910
(lp3911
g1586
ag1586
aI1
aI1
ag6
ag7
ag8
aa(lp3912
g1588
ag1589
aI1
aI1
ag262
ag7
ag8
aa(lp3913
NaNaNaNaNaNag1591
aa(lp3914
g1604
ag1589
aI1
aI1
ag265
ag7
ag8
aa(lp3915
g1604
ag1586
aI1
aI1
ag6
ag7
ag8
aa(lp3916
NaNaNaNaNaNag1591
aa(lp3917
NaNaNaNaNaNag1591
aa(lp3918
NaNaNaNaNaNag1591
aa(lp3919
g1588
ag1586
aI1
aI1
ag6
ag7
ag8
aag1195
asI15
(lp3920
(lp3921
g1586
ag1586
aI1
aI1
ag6
ag7
ag8
aa(lp3922
NaNaNaNaNaNag1591
aa(lp3923
g1586
ag1589
aI1
aI1
ag265
ag7
ag8
aa(lp3924
g1604
ag1589
aI1
aI1
ag6
ag7
ag8
aa(lp3925
g1604
ag1586
aI1
aI1
ag6
ag7
ag8
aa(lp3926
NaNaNaNaNaNag1591
aa(lp3927
NaNaNaNaNaNag1591
aa(lp3928
NaNaNaNaNaNag1591
aa(lp3929
g1588
ag1586
aI1
aI1
ag6
ag7
ag8
aag1195
asI16
(lp3930
(lp3931
g1586
ag1586
aI1
aI1
ag6
ag7
ag8
aa(lp3932
g1588
ag1589
aI1
aI1
ag265
ag7
ag8
aa(lp3933
g1586
ag1589
aI1
aI1
ag6
ag7
ag8
aa(lp3934
NaNaNaNaNaNag1591
aa(lp3935
NaNaNaNaNaNag1591
aa(lp3936
NaNaNaNaNaNag1591
aa(lp3937
NaNaNaNaNaNag1591
aa(lp3938
NaNaNaNaNaNag1591
aa(lp3939
g1588
ag1586
aI1
aI1
ag6
ag7
ag8
aag1195
asI17
g1911
sI18
g1811
sI19
g1631
sa(dp3940
I0
(lp3941
(lp3942
g1586
ag1586
aI1
aI1
ag6
ag7
ag8
aa(lp3943
NaNaNaNaNaNag1591
aa(lp3944
NaNaNaNaNaNag1591
aa(lp3945
NaNaNaNaNaNag1591
aa(lp3946
g1604
ag1586
aI1
aI1
ag6
ag7
ag8
aa(lp3947
NaNaNaNaNaNag1591
aa(lp3948
g1586
ag1596
aI1
aI1
ag6
ag7
ag8
aa(lp3949
NaNaNaNaNaNag1591
aa(lp3950
NaNaNaNaNaNag1591
aag607
asI1
(lp3951
(lp3952
g1586
ag1586
aI1
aI1
ag6
ag7
ag8
aa(lp3953
NaNaNaNaNaNag1591
aa(lp3954
NaNaNaNaNaNag1591
aa(lp3955
NaNaNaNaNaNag1591
aa(lp3956
g1604
ag1586
aI1
aI1
ag6
ag7
ag8
aa(lp3957
NaNaNaNaNaNag1591
aa(lp3958
NaNaNaNaNaNag1591
aa(lp3959
g1588
ag1596
aI1
aI1
ag6
ag7
ag8
aa(lp3960
g1588
ag1586
aI1
aI1
ag6
ag7
ag8
aag607
asI2
g2011
sI3
(lp3961
(lp3962
g1586
ag1586
aI1
aI1
ag6
ag7
ag8
aa(lp3963
NaNaNaNaNaNag1591
aa(lp3964
NaNaNaNaNaNag1591
aa(lp3965
NaNaNaNaNaNag1591
aa(lp3966
g1604
ag1586
aI1
aI1
ag6
ag7
ag8
aa(lp3967
g1604
ag1596
aI1
aI1
ag6
ag7
ag8
aa(lp3968
NaNaNaNaNaNag1591
aa(lp3969
NaNaNaNaNaNag1591
aa(lp3970
g1588
ag1586
aI1
aI1
ag6
ag7
ag8
aag607
asI4
(lp3971
(lp3972
g1586
ag1586
aI1
aI1
ag6
ag7
ag8
aa(lp3973
NaNaNaNaNaNag1591
aa(lp3974
NaNaNaNaNaNag1591
aa(lp3975
NaNaNaNaNaNag1591
aa(lp3976
NaNaNaNaNaNag1591
aa(lp3977
NaNaNaNaNaNag1591
aa(lp3978
g1586
ag1596
aI1
aI1
ag6
ag7
ag8
aa(lp3979
NaNaNaNaNaNag1591
aa(lp3980
g1588
ag1586
aI1
aI1
ag6
ag7
ag8
aag607
asI5
g2801
sI6
(lp3981
(lp3982
g1586
ag1586
aI1
aI1
ag6
ag7
ag8
aa(lp3983
g1588
ag1589
aI1
aI1
ag6
ag7
ag8
aa(lp3984
g1586
ag1589
aI1
aI1
ag6
ag7
ag8
aa(lp3985
NaNaNaNaNaNag1591
aa(lp3986
NaNaNaNaNaNag1591
aa(lp3987
NaNaNaNaNaNag1591
aa(lp3988
g1586
ag1596
aI1
aI1
ag6
ag7
ag8
aa(lp3989
g1588
ag1596
aI1
aI1
ag6
ag7
ag8
aa(lp3990
NaNaNaNaNaNag1591
aag607
asI7
g2631
sI8
(lp3991
(lp3992
g1586
ag1586
aI1
aI1
ag6
ag7
ag8
aa(lp3993
NaNaNaNaNaNag1591
aa(lp3994
NaNaNaNaNaNag1591
aa(lp3995
g1604
ag1589
aI1
aI1
ag6
ag7
ag8
aa(lp3996
g1604
ag1586
aI1
aI1
ag6
ag7
ag8
aa(lp3997
g1604
ag1596
aI1
aI1
ag6
ag7
ag8
aa(lp3998
g1586
ag1596
aI1
aI1
ag265
ag7
ag8
aa(lp3999
NaNaNaNaNaNag1591
aa(lp4000
NaNaNaNaNaNag1591
aag607
asI9
(lp4001
(lp4002
g1586
ag1586
aI1
aI1
ag6
ag7
ag8
aa(lp4003
NaNaNaNaNaNag1591
aa(lp4004
g1586
ag1589
aI1
aI1
ag6
ag7
ag8
aa(lp4005
NaNaNaNaNaNag1591
aa(lp4006
NaNaNaNaNaNag1591
aa(lp4007
NaNaNaNaNaNag1591
aa(lp4008
g1586
ag1596
aI1
aI1
ag6
ag7
ag8
aa(lp4009
g1588
ag1596
aI1
aI1
ag265
ag7
ag8
aa(lp4010
g1588
ag1586
aI1
aI1
ag6
ag7
ag8
aag607
asI10
g2711
sI11
(lp4011
(lp4012
g1586
ag1586
aI1
aI1
ag6
ag7
ag8
aa(lp4013
g1588
ag1589
aI1
aI1
ag6
ag7
ag8
aa(lp4014
g1586
ag1589
aI1
aI1
ag6
ag7
ag8
aa(lp4015
NaNaNaNaNaNag1591
aa(lp4016
NaNaNaNaNaNag1591
aa(lp4017
NaNaNaNaNaNag1591
aa(lp4018
g1586
ag1596
aI1
aI1
ag6
ag7
ag8
aa(lp4019
g1588
ag1596
aI1
aI1
ag6
ag7
ag8
aa(lp4020
g1588
ag1586
aI1
aI1
ag265
ag7
ag8
aag607
asI12
(lp4021
(lp4022
g1586
ag1586
aI1
aI1
ag6
ag7
ag8
aa(lp4023
NaNaNaNaNaNag1591
aa(lp4024
g1586
ag1589
aI1
aI1
ag6
ag7
ag8
aa(lp4025
g1604
ag1589
aI1
aI1
ag262
ag7
ag8
aa(lp4026
g1604
ag1586
aI1
aI1
ag6
ag7
ag8
aa(lp4027
NaNaNaNaNaNag1591
aa(lp4028
NaNaNaNaNaNag1591
aa(lp4029
NaNaNaNaNaNag1591
aa(lp4030
NaNaNaNaNaNag1591
aag607
asI13
(lp4031
(lp4032
g1586
ag1586
aI1
aI1
ag6
ag7
ag8
aa(lp4033
g1588
ag1589
aI1
aI1
ag6
ag7
ag8
aa(lp4034
g1586
ag1589
aI1
aI1
ag262
ag7
ag8
aa(lp4035
NaNaNaNaNaNag1591
aa(lp4036
g1604
ag1586
aI1
aI1
ag6
ag7
ag8
aa(lp4037
NaNaNaNaNaNag1591
aa(lp4038
NaNaNaNaNaNag1591
aa(lp4039
NaNaNaNaNaNag1591
aa(lp4040
g1588
ag1586
aI1
aI1
ag6
ag7
ag8
aag607
asI14
(lp4041
(lp4042
g1586
ag1586
aI1
aI1
ag6
ag7
ag8
aa(lp4043
g1588
ag1589
aI1
aI1
ag262
ag7
ag8
aa(lp4044
NaNaNaNaNaNag1591
aa(lp4045
g1604
ag1589
aI1
aI1
ag265
ag7
ag8
aa(lp4046
g1604
ag1586
aI1
aI1
ag6
ag7
ag8
aa(lp4047
NaNaNaNaNaNag1591
aa(lp4048
NaNaNaNaNaNag1591
aa(lp4049
NaNaNaNaNaNag1591
aa(lp4050
g1588
ag1586
aI1
aI1
ag6
ag7
ag8
aag607
asI15
(lp4051
(lp4052
g1586
ag1586
aI1
aI1
ag6
ag7
ag8
aa(lp4053
NaNaNaNaNaNag1591
aa(lp4054
g1586
ag1589
aI1
aI1
ag265
ag7
ag8
aa(lp4055
g1604
ag1589
aI1
aI1
ag6
ag7
ag8
aa(lp4056
g1604
ag1586
aI1
aI1
ag6
ag7
ag8
aa(lp4057
NaNaNaNaNaNag1591
aa(lp4058
NaNaNaNaNaNag1591
aa(lp4059
NaNaNaNaNaNag1591
aa(lp4060
g1588
ag1586
aI1
aI1
ag6
ag7
ag8
aag607
asI16
(lp4061
(lp4062
g1586
ag1586
aI1
aI1
ag6
ag7
ag8
aa(lp4063
g1588
ag1589
aI1
aI1
ag265
ag7
ag8
aa(lp4064
g1586
ag1589
aI1
aI1
ag6
ag7
ag8
aa(lp4065
NaNaNaNaNaNag1591
aa(lp4066
NaNaNaNaNaNag1591
aa(lp4067
NaNaNaNaNaNag1591
aa(lp4068
NaNaNaNaNaNag1591
aa(lp4069
NaNaNaNaNaNag1591
aa(lp4070
g1588
ag1586
aI1
aI1
ag6
ag7
ag8
aag607
asI17
g1931
sI18
(lp4071
(lp4072
g1586
ag1586
aI1
aI1
ag265
ag7
ag8
aa(lp4073
NaNaNaNaNaNag1591
aa(lp4074
g1586
ag1589
aI1
aI1
ag6
ag7
ag8
aa(lp4075
g1604
ag1589
aI1
aI1
ag6
ag7
ag8
aa(lp4076
g1604
ag1586
aI1
aI1
ag6
ag7
ag8
aa(lp4077
g1604
ag1596
aI1
aI1
ag6
ag7
ag8
aa(lp4078
g1586
ag1596
aI1
aI1
ag6
ag7
ag8
aa(lp4079
g1588
ag1596
aI1
aI1
ag6
ag7
ag8
aa(lp4080
NaNaNaNaNaNag1591
aag607
asI19
g1584
sa(dp4081
I0
(lp4082
(lp4083
g1586
ag1586
aI1
aI1
ag6
ag7
ag8
aa(lp4084
NaNaNaNaNaNag1591
aa(lp4085
NaNaNaNaNaNag1591
aa(lp4086
NaNaNaNaNaNag1591
aa(lp4087
g1604
ag1586
aI1
aI1
ag6
ag7
ag8
aa(lp4088
NaNaNaNaNaNag1591
aa(lp4089
g1586
ag1596
aI1
aI1
ag6
ag7
ag8
aa(lp4090
NaNaNaNaNaNag1591
aa(lp4091
NaNaNaNaNaNag1591
aag523
asI1
g2081
sI2
g2221
sI3
g2391
sI4
g1991
sI5
(lp4092
(lp4093
g1586
ag1586
aI1
aI1
ag6
ag7
ag8
aa(lp4094
NaNaNaNaNaNag1591
aa(lp4095
g1586
ag1589
aI1
aI1
ag6
ag7
ag8
aa(lp4096
g1604
ag1589
aI1
aI1
ag6
ag7
ag8
aa(lp4097
NaNaNaNaNaNag1591
aa(lp4098
NaNaNaNaNaNag1591
aa(lp4099
g1586
ag1596
aI1
aI1
ag6
ag7
ag8
aa(lp4100
NaNaNaNaNaNag1591
aa(lp4101
NaNaNaNaNaNag1591
aag523
asI6
g3161
sI7
(lp4102
(lp4103
g1586
ag1586
aI1
aI1
ag6
ag7
ag8
aa(lp4104
NaNaNaNaNaNag1591
aa(lp4105
g1586
ag1589
aI1
aI1
ag6
ag7
ag8
aa(lp4106
NaNaNaNaNaNag1591
aa(lp4107
NaNaNaNaNaNag1591
aa(lp4108
g1604
ag1596
aI1
aI1
ag262
ag7
ag8
aa(lp4109
g1586
ag1596
aI1
aI1
ag6
ag7
ag8
aa(lp4110
NaNaNaNaNaNag1591
aa(lp4111
NaNaNaNaNaNag1591
aag523
asI8
g2501
sI9
g2921
sI10
(lp4112
(lp4113
g1586
ag1586
aI1
aI1
ag6
ag7
ag8
aa(lp4114
NaNaNaNaNaNag1591
aa(lp4115
g1586
ag1589
aI1
aI1
ag6
ag7
ag8
aa(lp4116
NaNaNaNaNaNag1591
aa(lp4117
g1604
ag1586
aI1
aI1
ag262
ag7
ag8
aa(lp4118
g1604
ag1596
aI1
aI1
ag6
ag7
ag8
aa(lp4119
g1586
ag1596
aI1
aI1
ag6
ag7
ag8
aa(lp4120
NaNaNaNaNaNag1591
aa(lp4121
NaNaNaNaNaNag1591
aag523
asI11
(lp4122
(lp4123
g1586
ag1586
aI1
aI1
ag6
ag7
ag8
aa(lp4124
g1588
ag1589
aI1
aI1
ag6
ag7
ag8
aa(lp4125
g1586
ag1589
aI1
aI1
ag6
ag7
ag8
aa(lp4126
NaNaNaNaNaNag1591
aa(lp4127
NaNaNaNaNaNag1591
aa(lp4128
NaNaNaNaNaNag1591
aa(lp4129
g1586
ag1596
aI1
aI1
ag6
ag7
ag8
aa(lp4130
g1588
ag1596
aI1
aI1
ag6
ag7
ag8
aa(lp4131
g1588
ag1586
aI1
aI1
ag265
ag7
ag8
aag523
asI12
(lp4132
(lp4133
g1586
ag1586
aI1
aI1
ag6
ag7
ag8
aa(lp4134
NaNaNaNaNaNag1591
aa(lp4135
g1586
ag1589
aI1
aI1
ag6
ag7
ag8
aa(lp4136
g1604
ag1589
aI1
aI1
ag262
ag7
ag8
aa(lp4137
g1604
ag1586
aI1
aI1
ag6
ag7
ag8
aa(lp4138
NaNaNaNaNaNag1591
aa(lp4139
NaNaNaNaNaNag1591
aa(lp4140
NaNaNaNaNaNag1591
aa(lp4141
NaNaNaNaNaNag1591
aag523
asI13
(lp4142
(lp4143
g1586
ag1586
aI1
aI1
ag6
ag7
ag8
aa(lp4144
g1588
ag1589
aI1
aI1
ag6
ag7
ag8
aa(lp4145
g1586
ag1589
aI1
aI1
ag262
ag7
ag8
aa(lp4146
NaNaNaNaNaNag1591
aa(lp4147
g1604
ag1586
aI1
aI1
ag6
ag7
ag8
aa(lp4148
NaNaNaNaNaNag1591
aa(lp4149
NaNaNaNaNaNag1591
aa(lp4150
NaNaNaNaNaNag1591
aa(lp4151
g1588
ag1586
aI1
aI1
ag6
ag7
ag8
aag523
asI14
(lp4152
(lp4153
g1586
ag1586
aI1
aI1
ag6
ag7
ag8
aa(lp4154
g1588
ag1589
aI1
aI1
ag262
ag7
ag8
aa(lp4155
NaNaNaNaNaNag1591
aa(lp4156
g1604
ag1589
aI1
aI1
ag265
ag7
ag8
aa(lp4157
g1604
ag1586
aI1
aI1
ag6
ag7
ag8
aa(lp4158
NaNaNaNaNaNag1591
aa(lp4159
NaNaNaNaNaNag1591
aa(lp4160
NaNaNaNaNaNag1591
aa(lp4161
g1588
ag1586
aI1
aI1
ag6
ag7
ag8
aag523
asI15
(lp4162
(lp4163
g1586
ag1586
aI1
aI1
ag6
ag7
ag8
aa(lp4164
NaNaNaNaNaNag1591
aa(lp4165
g1586
ag1589
aI1
aI1
ag265
ag7
ag8
aa(lp4166
g1604
ag1589
aI1
aI1
ag6
ag7
ag8
aa(lp4167
g1604
ag1586
aI1
aI1
ag6
ag7
ag8
aa(lp4168
NaNaNaNaNaNag1591
aa(lp4169
NaNaNaNaNaNag1591
aa(lp4170
NaNaNaNaNaNag1591
aa(lp4171
g1588
ag1586
aI1
aI1
ag6
ag7
ag8
aag523
asI16
(lp4172
(lp4173
g1586
ag1586
aI1
aI1
ag6
ag7
ag8
aa(lp4174
g1588
ag1589
aI1
aI1
ag265
ag7
ag8
aa(lp4175
g1586
ag1589
aI1
aI1
ag6
ag7
ag8
aa(lp4176
NaNaNaNaNaNag1591
aa(lp4177
NaNaNaNaNaNag1591
aa(lp4178
NaNaNaNaNaNag1591
aa(lp4179
NaNaNaNaNaNag1591
aa(lp4180
NaNaNaNaNaNag1591
aa(lp4181
g1588
ag1586
aI1
aI1
ag6
ag7
ag8
aag523
asI17
(lp4182
(lp4183
g1586
ag1586
aI1
aI1
ag262
ag7
ag8
aa(lp4184
g1588
ag1589
aI1
aI1
ag6
ag7
ag8
aa(lp4185
NaNaNaNaNaNag1591
aa(lp4186
NaNaNaNaNaNag1591
aa(lp4187
NaNaNaNaNaNag1591
aa(lp4188
g1604
ag1596
aI1
aI1
ag6
ag7
ag8
aa(lp4189
g1586
ag1596
aI1
aI1
ag6
ag7
ag8
aa(lp4190
g1588
ag1596
aI1
aI1
ag6
ag7
ag8
aa(lp4191
g1588
ag1586
aI1
aI1
ag6
ag7
ag8
aag523
asI18
(lp4192
(lp4193
g1586
ag1586
aI1
aI1
ag265
ag7
ag8
aa(lp4194
NaNaNaNaNaNag1591
aa(lp4195
g1586
ag1589
aI1
aI1
ag6
ag7
ag8
aa(lp4196
g1604
ag1589
aI1
aI1
ag6
ag7
ag8
aa(lp4197
g1604
ag1586
aI1
aI1
ag6
ag7
ag8
aa(lp4198
g1604
ag1596
aI1
aI1
ag6
ag7
ag8
aa(lp4199
g1586
ag1596
aI1
aI1
ag6
ag7
ag8
aa(lp4200
g1588
ag1596
aI1
aI1
ag6
ag7
ag8
aa(lp4201
NaNaNaNaNaNag1591
aag523
asI19
g1721
sa(dp4202
I0
g2191
sI1
g2251
sI2
g2121
sI3
g2361
sI4
(lp4203
(lp4204
g1586
ag1586
aI1
aI1
ag6
ag7
ag8
aa(lp4205
NaNaNaNaNaNag1591
aa(lp4206
NaNaNaNaNaNag1591
aa(lp4207
NaNaNaNaNaNag1591
aa(lp4208
NaNaNaNaNaNag1591
aa(lp4209
NaNaNaNaNaNag1591
aa(lp4210
g1586
ag1596
aI1
aI1
ag6
ag7
ag8
aa(lp4211
NaNaNaNaNaNag1591
aa(lp4212
g1588
ag1586
aI1
aI1
ag6
ag7
ag8
aag355
asI5
g2781
sI6
(lp4213
(lp4214
g1586
ag1586
aI1
aI1
ag6
ag7
ag8
aa(lp4215
g1588
ag1589
aI1
aI1
ag6
ag7
ag8
aa(lp4216
g1586
ag1589
aI1
aI1
ag6
ag7
ag8
aa(lp4217
NaNaNaNaNaNag1591
aa(lp4218
NaNaNaNaNaNag1591
aa(lp4219
NaNaNaNaNaNag1591
aa(lp4220
g1586
ag1596
aI1
aI1
ag6
ag7
ag8
aa(lp4221
g1588
ag1596
aI1
aI1
ag6
ag7
ag8
aa(lp4222
NaNaNaNaNaNag1591
aag355
asI7
g2611
sI8
g2861
sI9
(lp4223
(lp4224
g1586
ag1586
aI1
aI1
ag6
ag7
ag8
aa(lp4225
NaNaNaNaNaNag1591
aa(lp4226
g1586
ag1589
aI1
aI1
ag6
ag7
ag8
aa(lp4227
NaNaNaNaNaNag1591
aa(lp4228
NaNaNaNaNaNag1591
aa(lp4229
NaNaNaNaNaNag1591
aa(lp4230
g1586
ag1596
aI1
aI1
ag6
ag7
ag8
aa(lp4231
g1588
ag1596
aI1
aI1
ag265
ag7
ag8
aa(lp4232
g1588
ag1586
aI1
aI1
ag6
ag7
ag8
aag355
asI10
(lp4233
(lp4234
g1586
ag1586
aI1
aI1
ag6
ag7
ag8
aa(lp4235
NaNaNaNaNaNag1591
aa(lp4236
g1586
ag1589
aI1
aI1
ag6
ag7
ag8
aa(lp4237
NaNaNaNaNaNag1591
aa(lp4238
g1604
ag1586
aI1
aI1
ag262
ag7
ag8
aa(lp4239
g1604
ag1596
aI1
aI1
ag6
ag7
ag8
aa(lp4240
g1586
ag1596
aI1
aI1
ag6
ag7
ag8
aa(lp4241
NaNaNaNaNaNag1591
aa(lp4242
NaNaNaNaNaNag1591
aag355
asI11
(lp4243
(lp4244
g1586
ag1586
aI1
aI1
ag6
ag7
ag8
aa(lp4245
g1588
ag1589
aI1
aI1
ag6
ag7
ag8
aa(lp4246
g1586
ag1589
aI1
aI1
ag6
ag7
ag8
aa(lp4247
NaNaNaNaNaNag1591
aa(lp4248
NaNaNaNaNaNag1591
aa(lp4249
NaNaNaNaNaNag1591
aa(lp4250
g1586
ag1596
aI1
aI1
ag6
ag7
ag8
aa(lp4251
g1588
ag1596
aI1
aI1
ag6
ag7
ag8
aa(lp4252
g1588
ag1586
aI1
aI1
ag265
ag7
ag8
aag355
asI12
(lp4253
(lp4254
g1586
ag1586
aI1
aI1
ag6
ag7
ag8
aa(lp4255
NaNaNaNaNaNag1591
aa(lp4256
g1586
ag1589
aI1
aI1
ag6
ag7
ag8
aa(lp4257
g1604
ag1589
aI1
aI1
ag262
ag7
ag8
aa(lp4258
g1604
ag1586
aI1
aI1
ag6
ag7
ag8
aa(lp4259
NaNaNaNaNaNag1591
aa(lp4260
NaNaNaNaNaNag1591
aa(lp4261
NaNaNaNaNaNag1591
aa(lp4262
NaNaNaNaNaNag1591
aag355
asI13
(lp4263
(lp4264
g1586
ag1586
aI1
aI1
ag6
ag7
ag8
aa(lp4265
g1588
ag1589
aI1
aI1
ag6
ag7
ag8
aa(lp4266
g1586
ag1589
aI1
aI1
ag262
ag7
ag8
aa(lp4267
NaNaNaNaNaNag1591
aa(lp4268
g1604
ag1586
aI1
aI1
ag6
ag7
ag8
aa(lp4269
NaNaNaNaNaNag1591
aa(lp4270
NaNaNaNaNaNag1591
aa(lp4271
NaNaNaNaNaNag1591
aa(lp4272
g1588
ag1586
aI1
aI1
ag6
ag7
ag8
aag355
asI14
(lp4273
(lp4274
g1586
ag1586
aI1
aI1
ag6
ag7
ag8
aa(lp4275
g1588
ag1589
aI1
aI1
ag262
ag7
ag8
aa(lp4276
NaNaNaNaNaNag1591
aa(lp4277
g1604
ag1589
aI1
aI1
ag265
ag7
ag8
aa(lp4278
g1604
ag1586
aI1
aI1
ag6
ag7
ag8
aa(lp4279
NaNaNaNaNaNag1591
aa(lp4280
NaNaNaNaNaNag1591
aa(lp4281
NaNaNaNaNaNag1591
aa(lp4282
g1588
ag1586
aI1
aI1
ag6
ag7
ag8
aag355
asI15
(lp4283
(lp4284
g1586
ag1586
aI1
aI1
ag6
ag7
ag8
aa(lp4285
NaNaNaNaNaNag1591
aa(lp4286
g1586
ag1589
aI1
aI1
ag265
ag7
ag8
aa(lp4287
g1604
ag1589
aI1
aI1
ag6
ag7
ag8
aa(lp4288
g1604
ag1586
aI1
aI1
ag6
ag7
ag8
aa(lp4289
NaNaNaNaNaNag1591
aa(lp4290
NaNaNaNaNaNag1591
aa(lp4291
NaNaNaNaNaNag1591
aa(lp4292
g1588
ag1586
aI1
aI1
ag6
ag7
ag8
aag355
asI16
(lp4293
(lp4294
g1586
ag1586
aI1
aI1
ag6
ag7
ag8
aa(lp4295
g1588
ag1589
aI1
aI1
ag265
ag7
ag8
aa(lp4296
g1586
ag1589
aI1
aI1
ag6
ag7
ag8
aa(lp4297
NaNaNaNaNaNag1591
aa(lp4298
NaNaNaNaNaNag1591
aa(lp4299
NaNaNaNaNaNag1591
aa(lp4300
NaNaNaNaNaNag1591
aa(lp4301
NaNaNaNaNaNag1591
aa(lp4302
g1588
ag1586
aI1
aI1
ag6
ag7
ag8
aag355
asI17
(lp4303
(lp4304
g1586
ag1586
aI1
aI1
ag262
ag7
ag8
aa(lp4305
g1588
ag1589
aI1
aI1
ag6
ag7
ag8
aa(lp4306
NaNaNaNaNaNag1591
aa(lp4307
NaNaNaNaNaNag1591
aa(lp4308
NaNaNaNaNaNag1591
aa(lp4309
g1604
ag1596
aI1
aI1
ag6
ag7
ag8
aa(lp4310
g1586
ag1596
aI1
aI1
ag6
ag7
ag8
aa(lp4311
g1588
ag1596
aI1
aI1
ag6
ag7
ag8
aa(lp4312
g1588
ag1586
aI1
aI1
ag6
ag7
ag8
aag355
asI18
(lp4313
(lp4314
g1586
ag1586
aI1
aI1
ag265
ag7
ag8
aa(lp4315
NaNaNaNaNaNag1591
aa(lp4316
g1586
ag1589
aI1
aI1
ag6
ag7
ag8
aa(lp4317
g1604
ag1589
aI1
aI1
ag6
ag7
ag8
aa(lp4318
g1604
ag1586
aI1
aI1
ag6
ag7
ag8
aa(lp4319
g1604
ag1596
aI1
aI1
ag6
ag7
ag8
aa(lp4320
g1586
ag1596
aI1
aI1
ag6
ag7
ag8
aa(lp4321
g1588
ag1596
aI1
aI1
ag6
ag7
ag8
aa(lp4322
NaNaNaNaNaNag1591
aag355
asI19
g1610
sa(dp4323
I0
g2201
sI1
g2091
sI2
g2021
sI3
g2331
sI4
g1971
sI5
g2791
sI6
g3141
sI7
g2621
sI8
g2451
sI9
g2581
sI10
g2671
sI11
g3201
sI12
g2751
sI13
g3071
sI14
g3001
sI15
g2541
sI16
g2961
sI17
g1921
sI18
g1821
sI19
g1641
sa(dp4324
I0
(lp4325
(lp4326
g1586
ag1586
aI1
aI1
ag6
ag7
ag8
aa(lp4327
NaNaNaNaNaNag1591
aa(lp4328
NaNaNaNaNaNag1591
aa(lp4329
NaNaNaNaNaNag1591
aa(lp4330
g1604
ag1586
aI1
aI1
ag6
ag7
ag8
aa(lp4331
NaNaNaNaNaNag1591
aa(lp4332
g1586
ag1596
aI1
aI1
ag6
ag7
ag8
aa(lp4333
NaNaNaNaNaNag1591
aa(lp4334
NaNaNaNaNaNag1591
aag691
asI1
(lp4335
(lp4336
g1586
ag1586
aI1
aI1
ag6
ag7
ag8
aa(lp4337
NaNaNaNaNaNag1591
aa(lp4338
NaNaNaNaNaNag1591
aa(lp4339
NaNaNaNaNaNag1591
aa(lp4340
g1604
ag1586
aI1
aI1
ag6
ag7
ag8
aa(lp4341
NaNaNaNaNaNag1591
aa(lp4342
NaNaNaNaNaNag1591
aa(lp4343
g1588
ag1596
aI1
aI1
ag6
ag7
ag8
aa(lp4344
g1588
ag1586
aI1
aI1
ag6
ag7
ag8
aag691
asI2
(lp4345
(lp4346
g1586
ag1586
aI1
aI1
ag6
ag7
ag8
aa(lp4347
NaNaNaNaNaNag1591
aa(lp4348
NaNaNaNaNaNag1591
aa(lp4349
NaNaNaNaNaNag1591
aa(lp4350
g1604
ag1586
aI1
aI1
ag6
ag7
ag8
aa(lp4351
NaNaNaNaNaNag1591
aa(lp4352
NaNaNaNaNaNag1591
aa(lp4353
NaNaNaNaNaNag1591
aa(lp4354
g1588
ag1586
aI1
aI1
ag6
ag7
ag8
aag691
asI3
(lp4355
(lp4356
g1586
ag1586
aI1
aI1
ag6
ag7
ag8
aa(lp4357
NaNaNaNaNaNag1591
aa(lp4358
NaNaNaNaNaNag1591
aa(lp4359
NaNaNaNaNaNag1591
aa(lp4360
g1604
ag1586
aI1
aI1
ag6
ag7
ag8
aa(lp4361
g1604
ag1596
aI1
aI1
ag6
ag7
ag8
aa(lp4362
NaNaNaNaNaNag1591
aa(lp4363
NaNaNaNaNaNag1591
aa(lp4364
g1588
ag1586
aI1
aI1
ag6
ag7
ag8
aag691
asI4
(lp4365
(lp4366
g1586
ag1586
aI1
aI1
ag6
ag7
ag8
aa(lp4367
NaNaNaNaNaNag1591
aa(lp4368
NaNaNaNaNaNag1591
aa(lp4369
NaNaNaNaNaNag1591
aa(lp4370
NaNaNaNaNaNag1591
aa(lp4371
NaNaNaNaNaNag1591
aa(lp4372
g1586
ag1596
aI1
aI1
ag6
ag7
ag8
aa(lp4373
NaNaNaNaNaNag1591
aa(lp4374
g1588
ag1586
aI1
aI1
ag6
ag7
ag8
aag691
asI5
(lp4375
(lp4376
g1586
ag1586
aI1
aI1
ag6
ag7
ag8
aa(lp4377
NaNaNaNaNaNag1591
aa(lp4378
g1586
ag1589
aI1
aI1
ag6
ag7
ag8
aa(lp4379
g1604
ag1589
aI1
aI1
ag6
ag7
ag8
aa(lp4380
NaNaNaNaNaNag1591
aa(lp4381
NaNaNaNaNaNag1591
aa(lp4382
g1586
ag1596
aI1
aI1
ag6
ag7
ag8
aa(lp4383
NaNaNaNaNaNag1591
aa(lp4384
NaNaNaNaNaNag1591
aag691
asI6
(lp4385
(lp4386
g1586
ag1586
aI1
aI1
ag6
ag7
ag8
aa(lp4387
g1588
ag1589
aI1
aI1
ag6
ag7
ag8
aa(lp4388
g1586
ag1589
aI1
aI1
ag6
ag7
ag8
aa(lp4389
NaNaNaNaNaNag1591
aa(lp4390
NaNaNaNaNaNag1591
aa(lp4391
NaNaNaNaNaNag1591
aa(lp4392
g1586
ag1596
aI1
aI1
ag6
ag7
ag8
aa(lp4393
g1588
ag1596
aI1
aI1
ag6
ag7
ag8
aa(lp4394
NaNaNaNaNaNag1591
aag691
asI7
(lp4395
(lp4396
g1586
ag1586
aI1
aI1
ag6
ag7
ag8
aa(lp4397
NaNaNaNaNaNag1591
aa(lp4398
g1586
ag1589
aI1
aI1
ag6
ag7
ag8
aa(lp4399
NaNaNaNaNaNag1591
aa(lp4400
NaNaNaNaNaNag1591
aa(lp4401
g1604
ag1596
aI1
aI1
ag262
ag7
ag8
aa(lp4402
g1586
ag1596
aI1
aI1
ag6
ag7
ag8
aa(lp4403
NaNaNaNaNaNag1591
aa(lp4404
NaNaNaNaNaNag1591
aag691
asI8
g2481
sI9
(lp4405
(lp4406
g1586
ag1586
aI1
aI1
ag6
ag7
ag8
aa(lp4407
NaNaNaNaNaNag1591
aa(lp4408
g1586
ag1589
aI1
aI1
ag6
ag7
ag8
aa(lp4409
NaNaNaNaNaNag1591
aa(lp4410
NaNaNaNaNaNag1591
aa(lp4411
NaNaNaNaNaNag1591
aa(lp4412
g1586
ag1596
aI1
aI1
ag6
ag7
ag8
aa(lp4413
g1588
ag1596
aI1
aI1
ag265
ag7
ag8
aa(lp4414
g1588
ag1586
aI1
aI1
ag6
ag7
ag8
aag691
asI10
(lp4415
(lp4416
g1586
ag1586
aI1
aI1
ag6
ag7
ag8
aa(lp4417
NaNaNaNaNaNag1591
aa(lp4418
g1586
ag1589
aI1
aI1
ag6
ag7
ag8
aa(lp4419
NaNaNaNaNaNag1591
aa(lp4420
g1604
ag1586
aI1
aI1
ag262
ag7
ag8
aa(lp4421
g1604
ag1596
aI1
aI1
ag6
ag7
ag8
aa(lp4422
g1586
ag1596
aI1
aI1
ag6
ag7
ag8
aa(lp4423
NaNaNaNaNaNag1591
aa(lp4424
NaNaNaNaNaNag1591
aag691
asI11
(lp4425
(lp4426
g1586
ag1586
aI1
aI1
ag6
ag7
ag8
aa(lp4427
g1588
ag1589
aI1
aI1
ag6
ag7
ag8
aa(lp4428
g1586
ag1589
aI1
aI1
ag6
ag7
ag8
aa(lp4429
NaNaNaNaNaNag1591
aa(lp4430
NaNaNaNaNaNag1591
aa(lp4431
NaNaNaNaNaNag1591
aa(lp4432
g1586
ag1596
aI1
aI1
ag6
ag7
ag8
aa(lp4433
g1588
ag1596
aI1
aI1
ag6
ag7
ag8
aa(lp4434
g1588
ag1586
aI1
aI1
ag265
ag7
ag8
aag691
asI12
(lp4435
(lp4436
g1586
ag1586
aI1
aI1
ag6
ag7
ag8
aa(lp4437
NaNaNaNaNaNag1591
aa(lp4438
g1586
ag1589
aI1
aI1
ag6
ag7
ag8
aa(lp4439
g1604
ag1589
aI1
aI1
ag262
ag7
ag8
aa(lp4440
g1604
ag1586
aI1
aI1
ag6
ag7
ag8
aa(lp4441
NaNaNaNaNaNag1591
aa(lp4442
NaNaNaNaNaNag1591
aa(lp4443
NaNaNaNaNaNag1591
aa(lp4444
NaNaNaNaNaNag1591
aag691
asI13
g3101
sI14
g3031
sI15
g2901
sI16
(lp4445
(lp4446
g1586
ag1586
aI1
aI1
ag6
ag7
ag8
aa(lp4447
g1588
ag1589
aI1
aI1
ag265
ag7
ag8
aa(lp4448
g1586
ag1589
aI1
aI1
ag6
ag7
ag8
aa(lp4449
NaNaNaNaNaNag1591
aa(lp4450
NaNaNaNaNaNag1591
aa(lp4451
NaNaNaNaNaNag1591
aa(lp4452
NaNaNaNaNaNag1591
aa(lp4453
NaNaNaNaNaNag1591
aa(lp4454
g1588
ag1586
aI1
aI1
ag6
ag7
ag8
aag691
asI17
g1891
sI18
g1791
sI19
g1671
sa(dp4455
I0
(lp4456
(lp4457
g1586
ag1586
aI1
aI1
ag6
ag7
ag8
aa(lp4458
NaNaNaNaNaNag1591
aa(lp4459
NaNaNaNaNaNag1591
aa(lp4460
NaNaNaNaNaNag1591
aa(lp4461
g1604
ag1586
aI1
aI1
ag6
ag7
ag8
aa(lp4462
NaNaNaNaNaNag1591
aa(lp4463
g1586
ag1596
aI1
aI1
ag6
ag7
ag8
aa(lp4464
NaNaNaNaNaNag1591
aa(lp4465
NaNaNaNaNaNag1591
aag271
asI1
g2261
sI2
g2131
sI3
g2371
sI4
(lp4466
(lp4467
g1586
ag1586
aI1
aI1
ag6
ag7
ag8
aa(lp4468
NaNaNaNaNaNag1591
aa(lp4469
NaNaNaNaNaNag1591
aa(lp4470
NaNaNaNaNaNag1591
aa(lp4471
NaNaNaNaNaNag1591
aa(lp4472
NaNaNaNaNaNag1591
aa(lp4473
g1586
ag1596
aI1
aI1
ag6
ag7
ag8
aa(lp4474
NaNaNaNaNaNag1591
aa(lp4475
g1588
ag1586
aI1
aI1
ag6
ag7
ag8
aag271
asI5
(lp4476
(lp4477
g1586
ag1586
aI1
aI1
ag6
ag7
ag8
aa(lp4478
NaNaNaNaNaNag1591
aa(lp4479
g1586
ag1589
aI1
aI1
ag6
ag7
ag8
aa(lp4480
g1604
ag1589
aI1
aI1
ag6
ag7
ag8
aa(lp4481
NaNaNaNaNaNag1591
aa(lp4482
NaNaNaNaNaNag1591
aa(lp4483
g1586
ag1596
aI1
aI1
ag6
ag7
ag8
aa(lp4484
NaNaNaNaNaNag1591
aa(lp4485
NaNaNaNaNaNag1591
aag271
asI6
(lp4486
(lp4487
g1586
ag1586
aI1
aI1
ag6
ag7
ag8
aa(lp4488
g1588
ag1589
aI1
aI1
ag6
ag7
ag8
aa(lp4489
g1586
ag1589
aI1
aI1
ag6
ag7
ag8
aa(lp4490
NaNaNaNaNaNag1591
aa(lp4491
NaNaNaNaNaNag1591
aa(lp4492
NaNaNaNaNaNag1591
aa(lp4493
g1586
ag1596
aI1
aI1
ag6
ag7
ag8
aa(lp4494
g1588
ag1596
aI1
aI1
ag6
ag7
ag8
aa(lp4495
NaNaNaNaNaNag1591
aag271
asI7
(lp4496
(lp4497
g1586
ag1586
aI1
aI1
ag6
ag7
ag8
aa(lp4498
NaNaNaNaNaNag1591
aa(lp4499
g1586
ag1589
aI1
aI1
ag6
ag7
ag8
aa(lp4500
NaNaNaNaNaNag1591
aa(lp4501
NaNaNaNaNaNag1591
aa(lp4502
g1604
ag1596
aI1
aI1
ag262
ag7
ag8
aa(lp4503
g1586
ag1596
aI1
aI1
ag6
ag7
ag8
aa(lp4504
NaNaNaNaNaNag1591
aa(lp4505
NaNaNaNaNaNag1591
aag271
asI8
g2871
sI9
(lp4506
(lp4507
g1586
ag1586
aI1
aI1
ag6
ag7
ag8
aa(lp4508
NaNaNaNaNaNag1591
aa(lp4509
g1586
ag1589
aI1
aI1
ag6
ag7
ag8
aa(lp4510
NaNaNaNaNaNag1591
aa(lp4511
NaNaNaNaNaNag1591
aa(lp4512
NaNaNaNaNaNag1591
aa(lp4513
g1586
ag1596
aI1
aI1
ag6
ag7
ag8
aa(lp4514
g1588
ag1596
aI1
aI1
ag265
ag7
ag8
aa(lp4515
g1588
ag1586
aI1
aI1
ag6
ag7
ag8
aag271
asI10
(lp4516
(lp4517
g1586
ag1586
aI1
aI1
ag6
ag7
ag8
aa(lp4518
NaNaNaNaNaNag1591
aa(lp4519
g1586
ag1589
aI1
aI1
ag6
ag7
ag8
aa(lp4520
NaNaNaNaNaNag1591
aa(lp4521
g1604
ag1586
aI1
aI1
ag262
ag7
ag8
aa(lp4522
g1604
ag1596
aI1
aI1
ag6
ag7
ag8
aa(lp4523
g1586
ag1596
aI1
aI1
ag6
ag7
ag8
aa(lp4524
NaNaNaNaNaNag1591
aa(lp4525
NaNaNaNaNaNag1591
aag271
asI11
(lp4526
(lp4527
g1586
ag1586
aI1
aI1
ag6
ag7
ag8
aa(lp4528
g1588
ag1589
aI1
aI1
ag6
ag7
ag8
aa(lp4529
g1586
ag1589
aI1
aI1
ag6
ag7
ag8
aa(lp4530
NaNaNaNaNaNag1591
aa(lp4531
NaNaNaNaNaNag1591
aa(lp4532
NaNaNaNaNaNag1591
aa(lp4533
g1586
ag1596
aI1
aI1
ag6
ag7
ag8
aa(lp4534
g1588
ag1596
aI1
aI1
ag6
ag7
ag8
aa(lp4535
g1588
ag1586
aI1
aI1
ag265
ag7
ag8
aag271
asI12
(lp4536
(lp4537
g1586
ag1586
aI1
aI1
ag6
ag7
ag8
aa(lp4538
NaNaNaNaNaNag1591
aa(lp4539
g1586
ag1589
aI1
aI1
ag6
ag7
ag8
aa(lp4540
g1604
ag1589
aI1
aI1
ag262
ag7
ag8
aa(lp4541
g1604
ag1586
aI1
aI1
ag6
ag7
ag8
aa(lp4542
NaNaNaNaNaNag1591
aa(lp4543
NaNaNaNaNaNag1591
aa(lp4544
NaNaNaNaNaNag1591
aa(lp4545
NaNaNaNaNaNag1591
aag271
asI13
(lp4546
(lp4547
g1586
ag1586
aI1
aI1
ag6
ag7
ag8
aa(lp4548
g1588
ag1589
aI1
aI1
ag6
ag7
ag8
aa(lp4549
g1586
ag1589
aI1
aI1
ag262
ag7
ag8
aa(lp4550
NaNaNaNaNaNag1591
aa(lp4551
g1604
ag1586
aI1
aI1
ag6
ag7
ag8
aa(lp4552
NaNaNaNaNaNag1591
aa(lp4553
NaNaNaNaNaNag1591
aa(lp4554
NaNaNaNaNaNag1591
aa(lp4555
g1588
ag1586
aI1
aI1
ag6
ag7
ag8
aag271
asI14
(lp4556
(lp4557
g1586
ag1586
aI1
aI1
ag6
ag7
ag8
aa(lp4558
g1588
ag1589
aI1
aI1
ag262
ag7
ag8
aa(lp4559
NaNaNaNaNaNag1591
aa(lp4560
g1604
ag1589
aI1
aI1
ag265
ag7
ag8
aa(lp4561
g1604
ag1586
aI1
aI1
ag6
ag7
ag8
aa(lp4562
NaNaNaNaNaNag1591
aa(lp4563
NaNaNaNaNaNag1591
aa(lp4564
NaNaNaNaNaNag1591
aa(lp4565
g1588
ag1586
aI1
aI1
ag6
ag7
ag8
aag271
asI15
(lp4566
(lp4567
g1586
ag1586
aI1
aI1
ag6
ag7
ag8
aa(lp4568
NaNaNaNaNaNag1591
aa(lp4569
g1586
ag1589
aI1
aI1
ag265
ag7
ag8
aa(lp4570
g1604
ag1589
aI1
aI1
ag6
ag7
ag8
aa(lp4571
g1604
ag1586
aI1
aI1
ag6
ag7
ag8
aa(lp4572
NaNaNaNaNaNag1591
aa(lp4573
NaNaNaNaNaNag1591
aa(lp4574
NaNaNaNaNaNag1591
aa(lp4575
g1588
ag1586
aI1
aI1
ag6
ag7
ag8
aag271
asI16
(lp4576
(lp4577
g1586
ag1586
aI1
aI1
ag6
ag7
ag8
aa(lp4578
g1588
ag1589
aI1
aI1
ag265
ag7
ag8
aa(lp4579
g1586
ag1589
aI1
aI1
ag6
ag7
ag8
aa(lp4580
NaNaNaNaNaNag1591
aa(lp4581
NaNaNaNaNaNag1591
aa(lp4582
NaNaNaNaNaNag1591
aa(lp4583
NaNaNaNaNaNag1591
aa(lp4584
NaNaNaNaNaNag1591
aa(lp4585
g1588
ag1586
aI1
aI1
ag6
ag7
ag8
aag271
asI17
g1861
sI18
g1761
sI19
g1711
sa(dp4586
I0
g2271
sI1
g2141
sI2
g2031
sI3
g2301
sI4
(lp4587
(lp4588
g1586
ag1586
aI1
aI1
ag6
ag7
ag8
aa(lp4589
NaNaNaNaNaNag1591
aa(lp4590
NaNaNaNaNaNag1591
aa(lp4591
NaNaNaNaNaNag1591
aa(lp4592
NaNaNaNaNaNag1591
aa(lp4593
NaNaNaNaNaNag1591
aa(lp4594
g1586
ag1596
aI1
aI1
ag6
ag7
ag8
aa(lp4595
NaNaNaNaNaNag1591
aa(lp4596
g1588
ag1586
aI1
aI1
ag6
ag7
ag8
aag1279
asI5
g2811
sI6
(lp4597
(lp4598
g1586
ag1586
aI1
aI1
ag6
ag7
ag8
aa(lp4599
g1588
ag1589
aI1
aI1
ag6
ag7
ag8
aa(lp4600
g1586
ag1589
aI1
aI1
ag6
ag7
ag8
aa(lp4601
NaNaNaNaNaNag1591
aa(lp4602
NaNaNaNaNaNag1591
aa(lp4603
NaNaNaNaNaNag1591
aa(lp4604
g1586
ag1596
aI1
aI1
ag6
ag7
ag8
aa(lp4605
g1588
ag1596
aI1
aI1
ag6
ag7
ag8
aa(lp4606
NaNaNaNaNaNag1591
aag1279
asI7
g2681
sI8
g2401
sI9
(lp4607
(lp4608
g1586
ag1586
aI1
aI1
ag6
ag7
ag8
aa(lp4609
NaNaNaNaNaNag1591
aa(lp4610
g1586
ag1589
aI1
aI1
ag6
ag7
ag8
aa(lp4611
NaNaNaNaNaNag1591
aa(lp4612
NaNaNaNaNaNag1591
aa(lp4613
NaNaNaNaNaNag1591
aa(lp4614
g1586
ag1596
aI1
aI1
ag6
ag7
ag8
aa(lp4615
g1588
ag1596
aI1
aI1
ag265
ag7
ag8
aa(lp4616
g1588
ag1586
aI1
aI1
ag6
ag7
ag8
aag1279
asI10
(lp4617
(lp4618
g1586
ag1586
aI1
aI1
ag6
ag7
ag8
aa(lp4619
NaNaNaNaNaNag1591
aa(lp4620
g1586
ag1589
aI1
aI1
ag6
ag7
ag8
aa(lp4621
NaNaNaNaNaNag1591
aa(lp4622
g1604
ag1586
aI1
aI1
ag262
ag7
ag8
aa(lp4623
g1604
ag1596
aI1
aI1
ag6
ag7
ag8
aa(lp4624
g1586
ag1596
aI1
aI1
ag6
ag7
ag8
aa(lp4625
NaNaNaNaNaNag1591
aa(lp4626
NaNaNaNaNaNag1591
aag1279
asI11
(lp4627
(lp4628
g1586
ag1586
aI1
aI1
ag6
ag7
ag8
aa(lp4629
g1588
ag1589
aI1
aI1
ag6
ag7
ag8
aa(lp4630
g1586
ag1589
aI1
aI1
ag6
ag7
ag8
aa(lp4631
NaNaNaNaNaNag1591
aa(lp4632
NaNaNaNaNaNag1591
aa(lp4633
NaNaNaNaNaNag1591
aa(lp4634
g1586
ag1596
aI1
aI1
ag6
ag7
ag8
aa(lp4635
g1588
ag1596
aI1
aI1
ag6
ag7
ag8
aa(lp4636
g1588
ag1586
aI1
aI1
ag265
ag7
ag8
aag1279
asI12
(lp4637
(lp4638
g1586
ag1586
aI1
aI1
ag6
ag7
ag8
aa(lp4639
NaNaNaNaNaNag1591
aa(lp4640
g1586
ag1589
aI1
aI1
ag6
ag7
ag8
aa(lp4641
g1604
ag1589
aI1
aI1
ag262
ag7
ag8
aa(lp4642
g1604
ag1586
aI1
aI1
ag6
ag7
ag8
aa(lp4643
NaNaNaNaNaNag1591
aa(lp4644
NaNaNaNaNaNag1591
aa(lp4645
NaNaNaNaNaNag1591
aa(lp4646
NaNaNaNaNaNag1591
aag1279
asI13
(lp4647
(lp4648
g1586
ag1586
aI1
aI1
ag6
ag7
ag8
aa(lp4649
g1588
ag1589
aI1
aI1
ag6
ag7
ag8
aa(lp4650
g1586
ag1589
aI1
aI1
ag262
ag7
ag8
aa(lp4651
NaNaNaNaNaNag1591
aa(lp4652
g1604
ag1586
aI1
aI1
ag6
ag7
ag8
aa(lp4653
NaNaNaNaNaNag1591
aa(lp4654
NaNaNaNaNaNag1591
aa(lp4655
NaNaNaNaNaNag1591
aa(lp4656
g1588
ag1586
aI1
aI1
ag6
ag7
ag8
aag1279
asI14
(lp4657
(lp4658
g1586
ag1586
aI1
aI1
ag6
ag7
ag8
aa(lp4659
g1588
ag1589
aI1
aI1
ag262
ag7
ag8
aa(lp4660
NaNaNaNaNaNag1591
aa(lp4661
g1604
ag1589
aI1
aI1
ag265
ag7
ag8
aa(lp4662
g1604
ag1586
aI1
aI1
ag6
ag7
ag8
aa(lp4663
NaNaNaNaNaNag1591
aa(lp4664
NaNaNaNaNaNag1591
aa(lp4665
NaNaNaNaNaNag1591
aa(lp4666
g1588
ag1586
aI1
aI1
ag6
ag7
ag8
aag1279
asI15
(lp4667
(lp4668
g1586
ag1586
aI1
aI1
ag6
ag7
ag8
aa(lp4669
NaNaNaNaNaNag1591
aa(lp4670
g1586
ag1589
aI1
aI1
ag265
ag7
ag8
aa(lp4671
g1604
ag1589
aI1
aI1
ag6
ag7
ag8
aa(lp4672
g1604
ag1586
aI1
aI1
ag6
ag7
ag8
aa(lp4673
NaNaNaNaNaNag1591
aa(lp4674
NaNaNaNaNaNag1591
aa(lp4675
NaNaNaNaNaNag1591
aa(lp4676
g1588
ag1586
aI1
aI1
ag6
ag7
ag8
aag1279
asI16
(lp4677
(lp4678
g1586
ag1586
aI1
aI1
ag6
ag7
ag8
aa(lp4679
g1588
ag1589
aI1
aI1
ag265
ag7
ag8
aa(lp4680
g1586
ag1589
aI1
aI1
ag6
ag7
ag8
aa(lp4681
NaNaNaNaNaNag1591
aa(lp4682
NaNaNaNaNaNag1591
aa(lp4683
NaNaNaNaNaNag1591
aa(lp4684
NaNaNaNaNaNag1591
aa(lp4685
NaNaNaNaNaNag1591
aa(lp4686
g1588
ag1586
aI1
aI1
ag6
ag7
ag8
aag1279
asI17
(lp4687
(lp4688
g1586
ag1586
aI1
aI1
ag262
ag7
ag8
aa(lp4689
g1588
ag1589
aI1
aI1
ag6
ag7
ag8
aa(lp4690
NaNaNaNaNaNag1591
aa(lp4691
NaNaNaNaNaNag1591
aa(lp4692
NaNaNaNaNaNag1591
aa(lp4693
g1604
ag1596
aI1
aI1
ag6
ag7
ag8
aa(lp4694
g1586
ag1596
aI1
aI1
ag6
ag7
ag8
aa(lp4695
g1588
ag1596
aI1
aI1
ag6
ag7
ag8
aa(lp4696
g1588
ag1586
aI1
aI1
ag6
ag7
ag8
aag1279
asI18
(lp4697
(lp4698
g1586
ag1586
aI1
aI1
ag265
ag7
ag8
aa(lp4699
NaNaNaNaNaNag1591
aa(lp4700
g1586
ag1589
aI1
aI1
ag6
ag7
ag8
aa(lp4701
g1604
ag1589
aI1
aI1
ag6
ag7
ag8
aa(lp4702
g1604
ag1586
aI1
aI1
ag6
ag7
ag8
aa(lp4703
g1604
ag1596
aI1
aI1
ag6
ag7
ag8
aa(lp4704
g1586
ag1596
aI1
aI1
ag6
ag7
ag8
aa(lp4705
g1588
ag1596
aI1
aI1
ag6
ag7
ag8
aa(lp4706
NaNaNaNaNaNag1591
aag1279
asI19
g1681
sa(dp4707
I0
g2281
sI1
g2151
sI2
g2041
sI3
g2311
sI4
(lp4708
(lp4709
g1586
ag1586
aI1
aI1
ag6
ag7
ag8
aa(lp4710
NaNaNaNaNaNag1591
aa(lp4711
NaNaNaNaNaNag1591
aa(lp4712
NaNaNaNaNaNag1591
aa(lp4713
NaNaNaNaNaNag1591
aa(lp4714
NaNaNaNaNaNag1591
aa(lp4715
g1586
ag1596
aI1
aI1
ag6
ag7
ag8
aa(lp4716
NaNaNaNaNaNag1591
aa(lp4717
g1588
ag1586
aI1
aI1
ag6
ag7
ag8
aag1111
asI5
g2821
sI6
(lp4718
(lp4719
g1586
ag1586
aI1
aI1
ag6
ag7
ag8
aa(lp4720
g1588
ag1589
aI1
aI1
ag6
ag7
ag8
aa(lp4721
g1586
ag1589
aI1
aI1
ag6
ag7
ag8
aa(lp4722
NaNaNaNaNaNag1591
aa(lp4723
NaNaNaNaNaNag1591
aa(lp4724
NaNaNaNaNaNag1591
aa(lp4725
g1586
ag1596
aI1
aI1
ag6
ag7
ag8
aa(lp4726
g1588
ag1596
aI1
aI1
ag6
ag7
ag8
aa(lp4727
NaNaNaNaNaNag1591
aag1111
asI7
g2691
sI8
g2411
sI9
(lp4728
(lp4729
g1586
ag1586
aI1
aI1
ag6
ag7
ag8
aa(lp4730
NaNaNaNaNaNag1591
aa(lp4731
g1586
ag1589
aI1
aI1
ag6
ag7
ag8
aa(lp4732
NaNaNaNaNaNag1591
aa(lp4733
NaNaNaNaNaNag1591
aa(lp4734
NaNaNaNaNaNag1591
aa(lp4735
g1586
ag1596
aI1
aI1
ag6
ag7
ag8
aa(lp4736
g1588
ag1596
aI1
aI1
ag265
ag7
ag8
aa(lp4737
g1588
ag1586
aI1
aI1
ag6
ag7
ag8
aag1111
asI10
(lp4738
(lp4739
g1586
ag1586
aI1
aI1
ag6
ag7
ag8
aa(lp4740
NaNaNaNaNaNag1591
aa(lp4741
g1586
ag1589
aI1
aI1
ag6
ag7
ag8
aa(lp4742
NaNaNaNaNaNag1591
aa(lp4743
g1604
ag1586
aI1
aI1
ag262
ag7
ag8
aa(lp4744
g1604
ag1596
aI1
aI1
ag6
ag7
ag8
aa(lp4745
g1586
ag1596
aI1
aI1
ag6
ag7
ag8
aa(lp4746
NaNaNaNaNaNag1591
aa(lp4747
NaNaNaNaNaNag1591
aag1111
asI11
(lp4748
(lp4749
g1586
ag1586
aI1
aI1
ag6
ag7
ag8
aa(lp4750
g1588
ag1589
aI1
aI1
ag6
ag7
ag8
aa(lp4751
g1586
ag1589
aI1
aI1
ag6
ag7
ag8
aa(lp4752
NaNaNaNaNaNag1591
aa(lp4753
NaNaNaNaNaNag1591
aa(lp4754
NaNaNaNaNaNag1591
aa(lp4755
g1586
ag1596
aI1
aI1
ag6
ag7
ag8
aa(lp4756
g1588
ag1596
aI1
aI1
ag6
ag7
ag8
aa(lp4757
g1588
ag1586
aI1
aI1
ag265
ag7
ag8
aag1111
asI12
(lp4758
(lp4759
g1586
ag1586
aI1
aI1
ag6
ag7
ag8
aa(lp4760
NaNaNaNaNaNag1591
aa(lp4761
g1586
ag1589
aI1
aI1
ag6
ag7
ag8
aa(lp4762
g1604
ag1589
aI1
aI1
ag262
ag7
ag8
aa(lp4763
g1604
ag1586
aI1
aI1
ag6
ag7
ag8
aa(lp4764
NaNaNaNaNaNag1591
aa(lp4765
NaNaNaNaNaNag1591
aa(lp4766
NaNaNaNaNaNag1591
aa(lp4767
NaNaNaNaNaNag1591
aag1111
asI13
(lp4768
(lp4769
g1586
ag1586
aI1
aI1
ag6
ag7
ag8
aa(lp4770
g1588
ag1589
aI1
aI1
ag6
ag7
ag8
aa(lp4771
g1586
ag1589
aI1
aI1
ag262
ag7
ag8
aa(lp4772
NaNaNaNaNaNag1591
aa(lp4773
g1604
ag1586
aI1
aI1
ag6
ag7
ag8
aa(lp4774
NaNaNaNaNaNag1591
aa(lp4775
NaNaNaNaNaNag1591
aa(lp4776
NaNaNaNaNaNag1591
aa(lp4777
g1588
ag1586
aI1
aI1
ag6
ag7
ag8
aag1111
asI14
(lp4778
(lp4779
g1586
ag1586
aI1
aI1
ag6
ag7
ag8
aa(lp4780
g1588
ag1589
aI1
aI1
ag262
ag7
ag8
aa(lp4781
NaNaNaNaNaNag1591
aa(lp4782
g1604
ag1589
aI1
aI1
ag265
ag7
ag8
aa(lp4783
g1604
ag1586
aI1
aI1
ag6
ag7
ag8
aa(lp4784
NaNaNaNaNaNag1591
aa(lp4785
NaNaNaNaNaNag1591
aa(lp4786
NaNaNaNaNaNag1591
aa(lp4787
g1588
ag1586
aI1
aI1
ag6
ag7
ag8
aag1111
asI15
(lp4788
(lp4789
g1586
ag1586
aI1
aI1
ag6
ag7
ag8
aa(lp4790
NaNaNaNaNaNag1591
aa(lp4791
g1586
ag1589
aI1
aI1
ag265
ag7
ag8
aa(lp4792
g1604
ag1589
aI1
aI1
ag6
ag7
ag8
aa(lp4793
g1604
ag1586
aI1
aI1
ag6
ag7
ag8
aa(lp4794
NaNaNaNaNaNag1591
aa(lp4795
NaNaNaNaNaNag1591
aa(lp4796
NaNaNaNaNaNag1591
aa(lp4797
g1588
ag1586
aI1
aI1
ag6
ag7
ag8
aag1111
asI16
(lp4798
(lp4799
g1586
ag1586
aI1
aI1
ag6
ag7
ag8
aa(lp4800
g1588
ag1589
aI1
aI1
ag265
ag7
ag8
aa(lp4801
g1586
ag1589
aI1
aI1
ag6
ag7
ag8
aa(lp4802
NaNaNaNaNaNag1591
aa(lp4803
NaNaNaNaNaNag1591
aa(lp4804
NaNaNaNaNaNag1591
aa(lp4805
NaNaNaNaNaNag1591
aa(lp4806
NaNaNaNaNaNag1591
aa(lp4807
g1588
ag1586
aI1
aI1
ag6
ag7
ag8
aag1111
asI17
(lp4808
(lp4809
g1586
ag1586
aI1
aI1
ag262
ag7
ag8
aa(lp4810
g1588
ag1589
aI1
aI1
ag6
ag7
ag8
aa(lp4811
NaNaNaNaNaNag1591
aa(lp4812
NaNaNaNaNaNag1591
aa(lp4813
NaNaNaNaNaNag1591
aa(lp4814
g1604
ag1596
aI1
aI1
ag6
ag7
ag8
aa(lp4815
g1586
ag1596
aI1
aI1
ag6
ag7
ag8
aa(lp4816
g1588
ag1596
aI1
aI1
ag6
ag7
ag8
aa(lp4817
g1588
ag1586
aI1
aI1
ag6
ag7
ag8
aag1111
asI18
(lp4818
(lp4819
g1586
ag1586
aI1
aI1
ag265
ag7
ag8
aa(lp4820
NaNaNaNaNaNag1591
aa(lp4821
g1586
ag1589
aI1
aI1
ag6
ag7
ag8
aa(lp4822
g1604
ag1589
aI1
aI1
ag6
ag7
ag8
aa(lp4823
g1604
ag1586
aI1
aI1
ag6
ag7
ag8
aa(lp4824
g1604
ag1596
aI1
aI1
ag6
ag7
ag8
aa(lp4825
g1586
ag1596
aI1
aI1
ag6
ag7
ag8
aa(lp4826
g1588
ag1596
aI1
aI1
ag6
ag7
ag8
aa(lp4827
NaNaNaNaNaNag1591
aag1111
asI19
g1691
sa(dp4828
I0
g2291
sI1
g2161
sI2
g2051
sI3
g2321
sI4
g1961
sI5
g2831
sI6
g3131
sI7
g2701
sI8
g2421
sI9
g2571
sI10
g2661
sI11
g3191
sI12
g2741
sI13
g3061
sI14
g2991
sI15
g2531
sI16
g2951
sI17
g1851
sI18
g1751
sI19
g1599
sasasS'num_objects'
p4829
I20
sS'obsNothing'
p4830
(lp4831
(lp4832
g64
ag66
aa(lp4833
(lp4834
I1
aI0
aa(lp4835
I0
aI1
aaasS'obsXsizes'
p4836
(lp4837
(lp4838
I1
aa(lp4839
(lp4840
F1.0
aaasS'obsXpos'
p4841
(lp4842
(lp4843
g39
ag37
ag35
aa(lp4844
(lp4845
I1
aI0
aI0
aa(lp4846
I0
aI1
aI0
aa(lp4847
I0
aI0
aI1
aaasS'observations'
p4848
(lp4849
g4842
ag81
ag4837
a(lp4850
(lp4851
I1
aa(lp4852
(lp4853
F1.0
aaaag73
ag88
ag4831
a(lp4854
(lp4855
I-1
aI10
aa(lp4856
(lp4857
F1.0
aF0.0
aa(lp4858
F0.0
aF1.0
aaaaNa(lp4859
(lp4860
g156
ag125
ag135
ag99
aS'none'
p4861
aa(lp4862
(lp4863
F0.0
aF0.0
aF0.0
aF1.0
aa(lp4864
F0.0
aF1.0
aF0.0
aF0.0
aa(lp4865
F1.0
aF0.0
aF0.0
aF0.0
aa(lp4866
F0.0
aF0.0
aF1.0
aF0.0
aa(lp4867
I0
aI0
aI0
aI0
aaaasS'pi'
p4868
(dp4869
((I0
(I0
I4
I1
I1
g6
g7
g8
tp4870
tp4871
(I1
(I1
I4
I1
I1
g6
g7
g8
tp4872
tp4873
(I2
(I2
I4
I1
I1
g6
g7
g8
tp4874
tp4875
(I3
(I3
I4
I1
I1
g6
g7
g8
tp4876
tp4877
(I4
(I4
I4
I1
I1
g6
g7
g8
tp4878
tp4879
(I5
(I0
I3
I1
I1
g6
g7
g8
tp4880
tp4881
(I6
(I4
I3
I1
I1
g6
g7
g8
tp4882
tp4883
(I7
(I0
I2
I1
I1
g6
g7
g8
tp4884
tp4885
(I8
(I3
I2
I1
I1
g6
g7
g8
tp4886
tp4887
(I9
(I4
I2
I1
I1
g6
g7
g8
tp4888
tp4889
(I10
(I0
I1
I1
I1
g6
g7
g8
tp4890
tp4891
(I11
(I4
I1
I1
I1
g6
g7
g8
tp4892
tp4893
(I12
(I0
I0
I1
I1
g6
g7
g8
tp4894
tp4895
(I13
(I1
I0
I1
I1
g6
g7
g8
tp4896
tp4897
(I14
(I2
I0
I1
I1
g6
g7
g8
tp4898
tp4899
(I15
(I3
I0
I1
I1
g6
g7
g8
tp4900
tp4901
(I16
(I4
I0
I1
I1
g6
g7
g8
tp4902
tp4903
(I17
(I1
I1
I1
I1
g262
g7
g8
tp4904
tp4905
(I18
(I3
I1
I1
I1
g265
g7
g8
tp4906
tp4907
(I19
(I3
I3
I1
I1
g30
g7
g8
tp4908
tp4909
tp4910
g1363
s((I0
(I0
I4
I1
I1
g6
g7
g8
tp4911
tp4912
(I1
(I1
I4
I1
I1
g6
g7
g8
tp4913
tp4914
(I2
(I2
I4
I1
I1
g6
g7
g8
tp4915
tp4916
(I3
(I3
I4
I1
I1
g6
g7
g8
tp4917
tp4918
(I4
(I4
I4
I1
I1
g6
g7
g8
tp4919
tp4920
(I5
(I0
I3
I1
I1
g6
g7
g8
tp4921
tp4922
(I6
(I4
I3
I1
I1
g6
g7
g8
tp4923
tp4924
(I7
(I0
I2
I1
I1
g6
g7
g8
tp4925
tp4926
(I8
(I3
I2
I1
I1
g6
g7
g8
tp4927
tp4928
(I9
(I4
I2
I1
I1
g6
g7
g8
tp4929
tp4930
(I10
(I0
I1
I1
I1
g6
g7
g8
tp4931
tp4932
(I11
(I4
I1
I1
I1
g6
g7
g8
tp4933
tp4934
(I12
(I0
I0
I1
I1
g6
g7
g8
tp4935
tp4936
(I13
(I1
I0
I1
I1
g6
g7
g8
tp4937
tp4938
(I14
(I2
I0
I1
I1
g6
g7
g8
tp4939
tp4940
(I15
(I3
I0
I1
I1
g6
g7
g8
tp4941
tp4942
(I16
(I4
I0
I1
I1
g6
g7
g8
tp4943
tp4944
(I17
(I1
I1
I1
I1
g262
g7
g8
tp4945
tp4946
(I18
(I3
I1
I1
I1
g265
g7
g8
tp4947
tp4948
(I19
(I2
I2
I1
I1
g30
g7
g8
tp4949
tp4950
tp4951
S'd'
p4952
s((I0
(I0
I4
I1
I1
g6
g7
g8
tp4953
tp4954
(I1
(I1
I4
I1
I1
g6
g7
g8
tp4955
tp4956
(I2
(I2
I4
I1
I1
g6
g7
g8
tp4957
tp4958
(I3
(I3
I4
I1
I1
g6
g7
g8
tp4959
tp4960
(I4
(I4
I4
I1
I1
g6
g7
g8
tp4961
tp4962
(I5
(I0
I3
I1
I1
g6
g7
g8
tp4963
tp4964
(I6
(I4
I3
I1
I1
g6
g7
g8
tp4965
tp4966
(I7
(I0
I2
I1
I1
g6
g7
g8
tp4967
tp4968
(I8
(I3
I2
I1
I1
g6
g7
g8
tp4969
tp4970
(I9
(I4
I2
I1
I1
g6
g7
g8
tp4971
tp4972
(I10
(I0
I1
I1
I1
g6
g7
g8
tp4973
tp4974
(I11
(I4
I1
I1
I1
g6
g7
g8
tp4975
tp4976
(I12
(I0
I0
I1
I1
g6
g7
g8
tp4977
tp4978
(I13
(I1
I0
I1
I1
g6
g7
g8
tp4979
tp4980
(I14
(I2
I0
I1
I1
g6
g7
g8
tp4981
tp4982
(I15
(I3
I0
I1
I1
g6
g7
g8
tp4983
tp4984
(I16
(I4
I0
I1
I1
g6
g7
g8
tp4985
tp4986
(I17
(I1
I1
I1
I1
g262
g7
g8
tp4987
tp4988
(I18
(I3
I1
I1
I1
g265
g7
g8
tp4989
tp4990
(I19
(I1
I2
I1
I1
g30
g7
g8
tp4991
tp4992
tp4993
g607
s((I0
(I0
I4
I1
I1
g6
g7
g8
tp4994
tp4995
(I1
(I1
I4
I1
I1
g6
g7
g8
tp4996
tp4997
(I2
(I2
I4
I1
I1
g6
g7
g8
tp4998
tp4999
(I3
(I3
I4
I1
I1
g6
g7
g8
tp5000
tp5001
(I4
(I4
I4
I1
I1
g6
g7
g8
tp5002
tp5003
(I5
(I0
I3
I1
I1
g6
g7
g8
tp5004
tp5005
(I6
(I4
I3
I1
I1
g6
g7
g8
tp5006
tp5007
(I7
(I0
I2
I1
I1
g6
g7
g8
tp5008
tp5009
(I8
(I3
I2
I1
I1
g6
g7
g8
tp5010
tp5011
(I9
(I4
I2
I1
I1
g6
g7
g8
tp5012
tp5013
(I10
(I0
I1
I1
I1
g6
g7
g8
tp5014
tp5015
(I11
(I4
I1
I1
I1
g6
g7
g8
tp5016
tp5017
(I12
(I0
I0
I1
I1
g6
g7
g8
tp5018
tp5019
(I13
(I1
I0
I1
I1
g6
g7
g8
tp5020
tp5021
(I14
(I2
I0
I1
I1
g6
g7
g8
tp5022
tp5023
(I15
(I3
I0
I1
I1
g6
g7
g8
tp5024
tp5025
(I16
(I4
I0
I1
I1
g6
g7
g8
tp5026
tp5027
(I17
(I1
I1
I1
I1
g262
g7
g8
tp5028
tp5029
(I18
(I3
I1
I1
I1
g265
g7
g8
tp5030
tp5031
(I19
(I2
I3
I1
I1
g30
g7
g8
tp5032
tp5033
tp5034
g1363
s((I0
(I0
I4
I1
I1
g6
g7
g8
tp5035
tp5036
(I1
(I1
I4
I1
I1
g6
g7
g8
tp5037
tp5038
(I2
(I2
I4
I1
I1
g6
g7
g8
tp5039
tp5040
(I3
(I3
I4
I1
I1
g6
g7
g8
tp5041
tp5042
(I4
(I4
I4
I1
I1
g6
g7
g8
tp5043
tp5044
(I5
(I0
I3
I1
I1
g6
g7
g8
tp5045
tp5046
(I6
(I4
I3
I1
I1
g6
g7
g8
tp5047
tp5048
(I7
(I0
I2
I1
I1
g6
g7
g8
tp5049
tp5050
(I8
(I3
I2
I1
I1
g6
g7
g8
tp5051
tp5052
(I9
(I4
I2
I1
I1
g6
g7
g8
tp5053
tp5054
(I10
(I0
I1
I1
I1
g6
g7
g8
tp5055
tp5056
(I11
(I4
I1
I1
I1
g6
g7
g8
tp5057
tp5058
(I12
(I0
I0
I1
I1
g6
g7
g8
tp5059
tp5060
(I13
(I1
I0
I1
I1
g6
g7
g8
tp5061
tp5062
(I14
(I2
I0
I1
I1
g6
g7
g8
tp5063
tp5064
(I15
(I3
I0
I1
I1
g6
g7
g8
tp5065
tp5066
(I16
(I4
I0
I1
I1
g6
g7
g8
tp5067
tp5068
(I17
(I1
I1
I1
I1
g262
g7
g8
tp5069
tp5070
(I18
(I3
I1
I1
I1
g265
g7
g8
tp5071
tp5072
(I19
(I2
I1
I1
I1
g30
g7
g8
tp5073
tp5074
tp5075
g1363
s((I0
(I0
I4
I1
I1
g6
g7
g8
tp5076
tp5077
(I1
(I1
I4
I1
I1
g6
g7
g8
tp5078
tp5079
(I2
(I2
I4
I1
I1
g6
g7
g8
tp5080
tp5081
(I3
(I3
I4
I1
I1
g6
g7
g8
tp5082
tp5083
(I4
(I4
I4
I1
I1
g6
g7
g8
tp5084
tp5085
(I5
(I0
I3
I1
I1
g6
g7
g8
tp5086
tp5087
(I6
(I4
I3
I1
I1
g6
g7
g8
tp5088
tp5089
(I7
(I0
I2
I1
I1
g6
g7
g8
tp5090
tp5091
(I8
(I3
I2
I1
I1
g6
g7
g8
tp5092
tp5093
(I9
(I4
I2
I1
I1
g6
g7
g8
tp5094
tp5095
(I10
(I0
I1
I1
I1
g6
g7
g8
tp5096
tp5097
(I11
(I4
I1
I1
I1
g6
g7
g8
tp5098
tp5099
(I12
(I0
I0
I1
I1
g6
g7
g8
tp5100
tp5101
(I13
(I1
I0
I1
I1
g6
g7
g8
tp5102
tp5103
(I14
(I2
I0
I1
I1
g6
g7
g8
tp5104
tp5105
(I15
(I3
I0
I1
I1
g6
g7
g8
tp5106
tp5107
(I16
(I4
I0
I1
I1
g6
g7
g8
tp5108
tp5109
(I17
(I1
I1
I1
I1
g262
g7
g8
tp5110
tp5111
(I18
(I3
I1
I1
I1
g265
g7
g8
tp5112
tp5113
(I19
(I1
I3
I1
I1
g30
g7
g8
tp5114
tp5115
tp5116
g1363
ssS'yMax'
p5117
I4
sS'RMAX'
p5118
I100
sS'oldMap'
p5119
(dp5120
(I1
I3
tp5121
(lp5122
s(I3
I0
tp5123
(lp5124
I15
as(I0
I3
tp5125
(lp5126
I5
as(I4
I0
tp5127
(lp5128
I16
as(I3
I3
tp5129
(lp5130
I19
as(I4
I4
tp5131
(lp5132
I4
as(I0
I4
tp5133
(lp5134
I0
as(I4
I1
tp5135
(lp5136
I11
as(I1
I1
tp5137
(lp5138
I17
as(I3
I2
tp5139
(lp5140
I8
as(I0
I0
tp5141
(lp5142
I12
as(I1
I4
tp5143
(lp5144
I1
as(I2
I3
tp5145
(lp5146
s(I4
I2
tp5147
(lp5148
I9
as(I1
I0
tp5149
(lp5150
I13
as(I0
I1
tp5151
(lp5152
I10
as(I3
I1
tp5153
(lp5154
I18
as(I2
I4
tp5155
(lp5156
I2
as(I2
I0
tp5157
(lp5158
I14
as(I4
I3
tp5159
(lp5160
I6
as(I3
I4
tp5161
(lp5162
I3
as(I0
I2
tp5163
(lp5164
I7
assS'Q'
p5165
(dp5166
sS'R'
p5167
(dp5168
g4910
(dp5169
g523
I-1
sg156
I100
sg125
I-1
ssg4951
(dp5170
g1195
I-1
sg156
I-1
sg125
I100
sg775
I-1
ssg4993
(dp5171
g607
I-1
sg156
I100
sg125
I100
ssg5034
(dp5172
g355
I-1
sg156
I-1
sg125
I-1
sg1447
I-1
ssg5075
(dp5173
g1363
I10
sg156
I-1
sg125
I100
sg859
I-1
ssg5116
(dp5174
g943
I-1
sg156
I100
sg125
I-1
sg1279
I-1
sssS'obsRewards'
p5175
g4854
sS'obsState'
p5176
g226
((lp5177
(g438
g439
tp5178
a(g1530
g1531
tp5179
a(g774
g775
tp5180
a(g690
g691
tp5181
a(g1026
g1027
tp5182
a(g270
g271
tp5183
a(g942
g943
tp5184
a(g1110
g1111
tp5185
a(g858
g859
tp5186
a(g354
g355
tp5187
a(g1278
g1279
tp5188
a(g1446
g1447
tp5189
a(g1194
g1195
tp5190
a(g606
g607
tp5191
a(g522
g523
tp5192
a(g1362
g1363
tp5193
atp5194
Rp5195
sS'schema_updates'
p5196
(dp5197
g313
(dp5198
sg397
(dp5199
sg481
(dp5200
sg565
(dp5201
sg649
(dp5202
sg733
(dp5203
sg817
(dp5204
sg901
(dp5205
sg985
(dp5206
sg1069
(dp5207
sg1153
(dp5208
sg1237
(dp5209
sg1321
(dp5210
sg1405
(dp5211
sg1489
(dp5212
sg1573
(dp5213
ssS'obsActions'
p5214
g4859
sS'obsYsizes'
p5215
g4850
sS'prev'
p5216
(dp5217
I0
(lp5218
I0
aI4
aI1
aI1
ag6
ag7
ag8
asI1
(lp5219
I1
aI4
aI1
aI1
ag6
ag7
ag8
asI2
(lp5220
I2
aI4
aI1
aI1
ag6
ag7
ag8
asI3
(lp5221
I3
aI4
aI1
aI1
ag6
ag7
ag8
asI4
(lp5222
I4
aI4
aI1
aI1
ag6
ag7
ag8
asI5
(lp5223
I0
aI3
aI1
aI1
ag6
ag7
ag8
asI6
(lp5224
I4
aI3
aI1
aI1
ag6
ag7
ag8
asI7
(lp5225
I0
aI2
aI1
aI1
ag6
ag7
ag8
asI8
(lp5226
I3
aI2
aI1
aI1
ag6
ag7
ag8
asI9
(lp5227
I4
aI2
aI1
aI1
ag6
ag7
ag8
asI10
(lp5228
I0
aI1
aI1
aI1
ag6
ag7
ag8
asI11
(lp5229
I4
aI1
aI1
aI1
ag6
ag7
ag8
asI12
(lp5230
I0
aI0
aI1
aI1
ag6
ag7
ag8
asI13
(lp5231
I1
aI0
aI1
aI1
ag6
ag7
ag8
asI14
(lp5232
I2
aI0
aI1
aI1
ag6
ag7
ag8
asI15
(lp5233
I3
aI0
aI1
aI1
ag6
ag7
ag8
asI16
(lp5234
I4
aI0
aI1
aI1
ag6
ag7
ag8
asI17
(lp5235
I1
aI1
aI1
aI1
ag26
ag7
ag8
asI18
(lp5236
I3
aI1
aI1
aI1
ag28
ag7
ag8
asI19
(lp5237
I3
aI3
aI1
aI1
ag30
ag7
ag8
assg101
S'det'
p5238
sS'dictionaries'
p5239
(lp5240
(lp5241
(dp5242
g37
g4846
sg35
g4847
sg39
g4845
sa(dp5243
(I1
I0
I0
tp5244
g39
s(I0
I1
I0
tp5245
g37
s(I0
I0
I1
tp5246
g35
saa(lp5247
(dp5248
g42
g84
sg44
g86
sg37
g85
sa(dp5249
(I1
I0
I0
tp5250
g42
s(I0
I1
I0
tp5251
g37
s(I0
I0
I1
tp5252
g44
saa(lp5253
(dp5254
I1
g4840
sa(dp5255
(F1.0
tp5256
I1
saa(lp5257
(dp5258
I1
g4853
sa(dp5259
(F1.0
tp5260
I1
saa(lp5261
(dp5262
g52
g76
sg54
g77
sg56
g78
sg58
g79
sa(dp5263
(F0.0
F0.0
F0.0
F1.0
tp5264
g52
s(F1.0
F0.0
F0.0
F0.0
tp5265
g58
s(F0.0
F1.0
F0.0
F0.0
tp5266
g56
s(F0.0
F0.0
F1.0
F0.0
tp5267
g54
saa(lp5268
(dp5269
g61
g91
sa(dp5270
(F1.0
tp5271
g61
saa(lp5272
(dp5273
g64
g4834
sg66
g4835
sa(dp5274
(I0
I1
tp5275
g66
s(I1
I0
tp5276
g64
saa(lp5277
(dp5278
I10
g4858
sI-1
g4857
sa(dp5279
(F0.0
F1.0
tp5280
I10
s(F1.0
F0.0
tp5281
I-1
saaNa(lp5282
(dp5283
g4861
g4867
sg99
g4866
sg156
g4863
sg125
g4864
sg135
g4865
sa(dp5284
(F0.0
F0.0
F0.0
F1.0
tp5285
g156
s(I0
I0
I0
I0
tp5286
g4861
s(F1.0
F0.0
F0.0
F0.0
tp5287
g135
s(F0.0
F0.0
F1.0
F0.0
tp5288
g99
s(F0.0
F1.0
F0.0
F0.0
tp5289
g125
saasS'objMap'
p5290
(dp5291
g5121
(lp5292
sg5123
(lp5293
I15
asg5125
(lp5294
I5
asg5127
(lp5295
I16
asg5129
(lp5296
I19
asg5131
(lp5297
I4
asg5133
(lp5298
I0
asg5135
(lp5299
I11
asg5137
(lp5300
I17
asg5139
(lp5301
I8
asg5141
(lp5302
I12
asg5143
(lp5303
I1
asg5145
(lp5304
sg5147
(lp5305
I9
asg5149
(lp5306
I13
asg5151
(lp5307
I10
asg5153
(lp5308
I18
asg5155
(lp5309
I2
asg5157
(lp5310
I14
asg5159
(lp5311
I6
asg5161
(lp5312
I3
asg5163
(lp5313
I7
assS'objects'
p5314
(dp5315
I0
(iblox
Object
p5316
(dp5317
S'y_size'
p5318
I1
sg101
I0
sS'x_pos'
p5319
I0
sS'colour'
p5320
g6
sS'shape'
p5321
g7
sS'x_size'
p5322
I1
sS'y_pos'
p5323
I4
sS'nothing'
p5324
g8
sbsI1
(iblox
Object
p5325
(dp5326
g5318
I1
sg101
I1
sg5319
I1
sg5320
g6
sg5321
g7
sg5322
I1
sg5323
I4
sg5324
g8
sbsI2
(iblox
Object
p5327
(dp5328
g5318
I1
sg101
I2
sg5319
I2
sg5320
g6
sg5321
g7
sg5322
I1
sg5323
I4
sg5324
g8
sbsI3
(iblox
Object
p5329
(dp5330
g5318
I1
sg101
I3
sg5319
I3
sg5320
g6
sg5321
g7
sg5322
I1
sg5323
I4
sg5324
g8
sbsI4
(iblox
Object
p5331
(dp5332
g5318
I1
sg101
I4
sg5319
I4
sg5320
g6
sg5321
g7
sg5322
I1
sg5323
I4
sg5324
g8
sbsI5
(iblox
Object
p5333
(dp5334
g5318
I1
sg101
I5
sg5319
I0
sg5320
g6
sg5321
g7
sg5322
I1
sg5323
I3
sg5324
g8
sbsI6
(iblox
Object
p5335
(dp5336
g5318
I1
sg101
I6
sg5319
I4
sg5320
g6
sg5321
g7
sg5322
I1
sg5323
I3
sg5324
g8
sbsI7
(iblox
Object
p5337
(dp5338
g5318
I1
sg101
I7
sg5319
I0
sg5320
g6
sg5321
g7
sg5322
I1
sg5323
I2
sg5324
g8
sbsI8
(iblox
Object
p5339
(dp5340
g5318
I1
sg101
I8
sg5319
I3
sg5320
g6
sg5321
g7
sg5322
I1
sg5323
I2
sg5324
g8
sbsI9
(iblox
Object
p5341
(dp5342
g5318
I1
sg101
I9
sg5319
I4
sg5320
g6
sg5321
g7
sg5322
I1
sg5323
I2
sg5324
g8
sbsI10
(iblox
Object
p5343
(dp5344
g5318
I1
sg101
I10
sg5319
I0
sg5320
g6
sg5321
g7
sg5322
I1
sg5323
I1
sg5324
g8
sbsI11
(iblox
Object
p5345
(dp5346
g5318
I1
sg101
I11
sg5319
I4
sg5320
g6
sg5321
g7
sg5322
I1
sg5323
I1
sg5324
g8
sbsI12
(iblox
Object
p5347
(dp5348
g5318
I1
sg101
I12
sg5319
I0
sg5320
g6
sg5321
g7
sg5322
I1
sg5323
I0
sg5324
g8
sbsI13
(iblox
Object
p5349
(dp5350
g5318
I1
sg101
I13
sg5319
I1
sg5320
g6
sg5321
g7
sg5322
I1
sg5323
I0
sg5324
g8
sbsI14
(iblox
Object
p5351
(dp5352
g5318
I1
sg101
I14
sg5319
I2
sg5320
g6
sg5321
g7
sg5322
I1
sg5323
I0
sg5324
g8
sbsI15
(iblox
Object
p5353
(dp5354
g5318
I1
sg101
I15
sg5319
I3
sg5320
g6
sg5321
g7
sg5322
I1
sg5323
I0
sg5324
g8
sbsI16
(iblox
Object
p5355
(dp5356
g5318
I1
sg101
I16
sg5319
I4
sg5320
g6
sg5321
g7
sg5322
I1
sg5323
I0
sg5324
g8
sbsI17
(iblox
Object
p5357
(dp5358
g5318
I1
sg101
I17
sg5319
I1
sg5320
g26
sg5321
g7
sg5322
I1
sg5323
I1
sg5324
g8
sbsI18
(iblox
Object
p5359
(dp5360
g5318
I1
sg101
I18
sg5319
I3
sg5320
g28
sg5321
g7
sg5322
I1
sg5323
I1
sg5324
g8
sbsI19
(iblox
Object
p5361
(dp5362
g5318
I1
sg101
I19
sg5319
I3
sg5320
g30
sg5321
g7
sg5322
I1
sg5323
I3
sg5324
g8
sbssS'action'
p5363
g1363
sS'reward'
p5364
I-1
sb.