(iblox
Model
p0
(dp1
S'deterministic'
p2
I01
sS'curr'
p3
(dp4
I0
(lp5
I0
aI4
aI1
aI1
aS'wall'
p6
aS'square'
p7
aS'no'
p8
asI1
(lp9
I1
aI4
aI1
aI1
ag6
ag7
ag8
asI2
(lp10
I2
aI4
aI1
aI1
ag6
ag7
ag8
asI3
(lp11
I3
aI4
aI1
aI1
ag6
ag7
ag8
asI4
(lp12
I4
aI4
aI1
aI1
ag6
ag7
ag8
asI5
(lp13
I0
aI3
aI1
aI1
ag6
ag7
ag8
asI6
(lp14
I4
aI3
aI1
aI1
ag6
ag7
ag8
asI7
(lp15
I0
aI2
aI1
aI1
ag6
ag7
ag8
asI8
(lp16
I3
aI2
aI1
aI1
ag6
ag7
ag8
asI9
(lp17
I4
aI2
aI1
aI1
ag6
ag7
ag8
asI10
(lp18
I0
aI1
aI1
aI1
ag6
ag7
ag8
asI11
(lp19
I4
aI1
aI1
aI1
ag6
ag7
ag8
asI12
(lp20
I0
aI0
aI1
aI1
ag6
ag7
ag8
asI13
(lp21
I1
aI0
aI1
aI1
ag6
ag7
ag8
asI14
(lp22
I2
aI0
aI1
aI1
ag6
ag7
ag8
asI15
(lp23
I3
aI0
aI1
aI1
ag6
ag7
ag8
asI16
(lp24
I4
aI0
aI1
aI1
ag6
ag7
ag8
asI17
(lp25
I1
aI1
aI1
aI1
aS'hole'
p26
ag7
ag8
asI18
(lp27
I3
aI1
aI1
aI1
aS'goal'
p28
ag7
ag8
asI19
(lp29
I2
aI1
aI1
aI1
aS'agent'
p30
ag7
ag8
assS'num_schemas'
p31
I25
sS'evidence'
p32
(lp33
(dp34
S'right'
p35
(lp36
sS'centre'
p37
(lp38
sS'left'
p39
(lp40
sa(dp41
S'below'
p42
(lp43
sS'above'
p44
(lp45
sg37
(lp46
sa(dp47
I1
(lp48
sa(dp49
I1
(lp50
sa(dp51
S'wall'
p52
(lp53
sS'hole'
p54
(lp55
sS'goal'
p56
(lp57
sS'agent'
p58
(lp59
sa(dp60
S'square'
p61
(lp62
sa(dp63
S'yes'
p64
(lp65
sS'no'
p66
(lp67
sa(dp68
I10
(lp69
sI-1
(lp70
sI-10
(lp71
sasS'xMax'
p72
I0
sS'obsColours'
p73
(lp74
(lp75
g52
ag54
ag56
ag58
aa(lp76
(lp77
F0.0
aF0.0
aF0.0
aF1.0
aa(lp78
F0.0
aF0.0
aF1.0
aF0.0
aa(lp79
F0.0
aF1.0
aF0.0
aF0.0
aa(lp80
F1.0
aF0.0
aF0.0
aF0.0
aaasS'obsYpos'
p81
(lp82
(lp83
g42
ag37
ag44
aa(lp84
(lp85
I1
aI0
aI0
aa(lp86
I0
aI1
aI0
aa(lp87
I0
aI0
aI1
aaasS'obsShapes'
p88
(lp89
(lp90
g61
aa(lp91
(lp92
F1.0
aaasS'schemas'
p93
(lp94
(dp95
g35
(lp96
(iblox
Schema
p97
(dp98
S'actionBody'
p99
S'r'
p100
sS'head'
p101
g35
sS'positive'
p102
I0
sS'negative'
p103
I0
sS'id'
p104
c__builtin__
id
p105
sS'objectBody'
p106
(dp107
(I5
I6
tp108
g64
s(I7
I4
tp109
g52
s(I0
I4
tp110
g58
s(I4
I6
tp111
g64
s(I8
I4
tp112
g52
ssba(iblox
Schema
p113
(dp114
g99
g100
sg101
g35
sg102
I0
sg103
I0
sg104
g105
sg106
(dp115
(I5
I4
tp116
g52
s(I4
I6
tp117
g64
s(I6
I6
tp118
g64
s(I1
I4
tp119
g52
s(I8
I6
tp120
g64
s(I3
I4
tp121
g52
ssbasg37
(lp122
sg39
(lp123
(iblox
Schema
p124
(dp125
g99
S'l'
p126
sg101
g39
sg102
I0
sg103
I0
sg104
g105
sg106
(dp127
(I8
I6
tp128
g64
s(I0
I4
tp129
g58
ssba(iblox
Schema
p130
(dp131
g99
g126
sg101
g39
sg102
I0
sg103
I0
sg104
g105
sg106
(dp132
(I8
I6
tp133
g64
s(I5
I4
tp134
g52
s(I7
I6
tp135
g64
s(I1
I4
tp136
g52
ssbasa(dp137
g42
(lp138
(iblox
Schema
p139
(dp140
g99
S'd'
p141
sg101
g42
sg102
I0
sg103
I0
sg104
g105
sg106
(dp142
(I8
I6
tp143
g64
s(I6
I6
tp144
g64
ssba(iblox
Schema
p145
(dp146
g99
g141
sg101
g42
sg102
I0
sg103
I0
sg104
g105
sg106
(dp147
(I5
I6
tp148
g64
s(I7
I6
tp149
g66
s(I1
I4
tp150
g52
s(I8
I4
tp151
g52
ssbasg44
(lp152
(iblox
Schema
p153
(dp154
g99
S'u'
p155
sg101
g44
sg102
I0
sg103
I0
sg104
g105
sg106
(dp156
(I4
I4
tp157
g56
ssba(iblox
Schema
p158
(dp159
g99
g155
sg101
g44
sg102
I0
sg103
I0
sg104
g105
sg106
(dp160
(I7
I4
tp161
g54
ssba(iblox
Schema
p162
(dp163
g99
g155
sg101
g44
sg102
I0
sg103
I0
sg104
g105
sg106
(dp164
(I6
I4
tp165
g54
ssbasg37
(lp166
sa(dp167
I1
(lp168
sa(dp169
I1
(lp170
sa(dp171
g52
(lp172
sg54
(lp173
sg56
(lp174
sg58
(lp175
sa(dp176
g61
(lp177
sa(dp178
g64
(lp179
sg66
(lp180
sa(dp181
I10
(lp182
(iblox
Schema
p183
(dp184
g99
g100
sg101
I10
sg102
I0
sg103
I0
sg104
g105
sg106
(dp185
(I4
I4
tp186
g56
ssbasI-1
(lp187
(iblox
Schema
p188
(dp189
g99
Nsg101
I-1
sg102
I0
sg103
I0
sg104
g105
sg106
(dp190
(I1
I4
tp191
g52
s(I0
I4
tp192
g58
ssba(iblox
Schema
p193
(dp194
g99
Nsg101
I-1
sg102
I0
sg103
I0
sg104
g105
sg106
(dp195
(I4
I4
tp196
g52
s(I0
I4
tp197
g58
ssba(iblox
Schema
p198
(dp199
g99
Nsg101
I-1
sg102
I0
sg103
I0
sg104
g105
sg106
(dp200
(I0
I4
tp201
g58
s(I6
I6
tp202
g64
ssba(iblox
Schema
p203
(dp204
g99
g155
sg101
I-1
sg102
I0
sg103
I0
sg104
g105
sg106
(dp205
(I7
I4
tp206
g52
s(I2
I6
tp207
g64
s(I3
I4
tp208
g52
ssba(iblox
Schema
p209
(dp210
g99
g141
sg101
I-1
sg102
I0
sg103
I0
sg104
g105
sg106
(dp211
(I6
I4
tp212
g52
s(I2
I6
tp213
g64
s(I3
I4
tp214
g52
ssbasI-10
(lp215
(iblox
Schema
p216
(dp217
g99
g126
sg101
I-10
sg102
I0
sg103
I0
sg104
g105
sg106
(dp218
(I8
I4
tp219
g54
ssbasasS'obsTrans'
p220
c__builtin__
set
p221
((lp222
tp223
Rp224
sS'obsChanges'
p225
g221
((lp226
tp227
Rp228
sS'data'
p229
(lp230
(dp231
g35
(lp232
sg37
(lp233
sg39
(lp234
sa(dp235
g42
(lp236
sg44
(lp237
sg37
(lp238
sa(dp239
I1
(lp240
sa(dp241
I1
(lp242
sa(dp243
g52
(lp244
sg54
(lp245
sg56
(lp246
sg58
(lp247
sa(dp248
g61
(lp249
sa(dp250
g64
(lp251
sg66
(lp252
sa(dp253
I10
(lp254
sI-1
(lp255
sI-10
(lp256
sasS'num_objects'
p257
I20
sS'obsNothing'
p258
(lp259
(lp260
g64
ag66
aa(lp261
(lp262
I1
aI0
aa(lp263
I0
aI1
aaasS'obsXsizes'
p264
(lp265
(lp266
I1
aa(lp267
(lp268
F1.0
aaasS'obsXpos'
p269
(lp270
(lp271
g39
ag37
ag35
aa(lp272
(lp273
I1
aI0
aI0
aa(lp274
I0
aI1
aI0
aa(lp275
I0
aI0
aI1
aaasS'observations'
p276
(lp277
g270
ag82
ag265
a(lp278
(lp279
I1
aa(lp280
(lp281
F1.0
aaaag74
ag89
ag259
a(lp282
(lp283
I-1
aI10
aI-10
aa(lp284
(lp285
F0.0
aF1.0
aF0.0
aa(lp286
F0.0
aF0.0
aF1.0
aa(lp287
F1.0
aF0.0
aF0.0
aaaaNa(lp288
(lp289
g155
ag126
ag141
ag100
aS'none'
p290
aa(lp291
(lp292
F0.0
aF0.0
aF0.0
aF1.0
aa(lp293
F0.0
aF1.0
aF0.0
aF0.0
aa(lp294
F1.0
aF0.0
aF0.0
aF0.0
aa(lp295
F0.0
aF0.0
aF1.0
aF0.0
aa(lp296
I0
aI0
aI0
aI0
aaaasS'pi'
p297
(dp298
sS'yMax'
p299
I0
sS'RMAX'
p300
I100
sS'oldMap'
p301
(dp302
(I1
I3
tp303
(lp304
s(I3
I0
tp305
(lp306
I15
as(I2
I1
tp307
(lp308
I19
as(I0
I3
tp309
(lp310
I5
as(I4
I0
tp311
(lp312
I16
as(I1
I2
tp313
(lp314
s(I4
I4
tp315
(lp316
I4
as(I2
I2
tp317
(lp318
s(I4
I1
tp319
(lp320
I11
as(I1
I1
tp321
(lp322
I17
as(I3
I2
tp323
(lp324
I8
as(I0
I0
tp325
(lp326
I12
as(I0
I4
tp327
(lp328
I0
as(I1
I4
tp329
(lp330
I1
as(I4
I2
tp331
(lp332
I9
as(I1
I0
tp333
(lp334
I13
as(I0
I1
tp335
(lp336
I10
as(I3
I1
tp337
(lp338
I18
as(I2
I4
tp339
(lp340
I2
as(I2
I0
tp341
(lp342
I14
as(I4
I3
tp343
(lp344
I6
as(I3
I4
tp345
(lp346
I3
as(I0
I2
tp347
(lp348
I7
assS'Q'
p349
(dp350
sS'R'
p351
(dp352
sS'obsRewards'
p353
g282
sS'obsState'
p354
g221
((lp355
tp356
Rp357
sS'obsActions'
p358
g288
sS'obsYsizes'
p359
g278
sS'prev'
p360
(dp361
I0
(lp362
I0
aI4
aI1
aI1
ag6
ag7
ag8
asI1
(lp363
I1
aI4
aI1
aI1
ag6
ag7
ag8
asI2
(lp364
I2
aI4
aI1
aI1
ag6
ag7
ag8
asI3
(lp365
I3
aI4
aI1
aI1
ag6
ag7
ag8
asI4
(lp366
I4
aI4
aI1
aI1
ag6
ag7
ag8
asI5
(lp367
I0
aI3
aI1
aI1
ag6
ag7
ag8
asI6
(lp368
I4
aI3
aI1
aI1
ag6
ag7
ag8
asI7
(lp369
I0
aI2
aI1
aI1
ag6
ag7
ag8
asI8
(lp370
I3
aI2
aI1
aI1
ag6
ag7
ag8
asI9
(lp371
I4
aI2
aI1
aI1
ag6
ag7
ag8
asI10
(lp372
I0
aI1
aI1
aI1
ag6
ag7
ag8
asI11
(lp373
I4
aI1
aI1
aI1
ag6
ag7
ag8
asI12
(lp374
I0
aI0
aI1
aI1
ag6
ag7
ag8
asI13
(lp375
I1
aI0
aI1
aI1
ag6
ag7
ag8
asI14
(lp376
I2
aI0
aI1
aI1
ag6
ag7
ag8
asI15
(lp377
I3
aI0
aI1
aI1
ag6
ag7
ag8
asI16
(lp378
I4
aI0
aI1
aI1
ag6
ag7
ag8
asI17
(lp379
I1
aI1
aI1
aI1
ag26
ag7
ag8
asI18
(lp380
I3
aI1
aI1
aI1
ag28
ag7
ag8
asI19
(lp381
I2
aI1
aI1
aI1
ag30
ag7
ag8
assS'name'
p382
S'two'
p383
sS'dictionaries'
p384
(lp385
(lp386
(dp387
g35
g275
sg39
g273
sg37
g274
sa(dp388
(I1
I0
I0
tp389
g39
s(I0
I1
I0
tp390
g37
s(I0
I0
I1
tp391
g35
saa(lp392
(dp393
g42
g85
sg44
g87
sg37
g86
sa(dp394
(I1
I0
I0
tp395
g42
s(I0
I1
I0
tp396
g37
s(I0
I0
I1
tp397
g44
saa(lp398
(dp399
I1
g268
sa(dp400
(F1.0
tp401
I1
saa(lp402
(dp403
I1
g281
sa(dp404
(F1.0
tp405
I1
saa(lp406
(dp407
g52
g77
sg54
g78
sg56
g79
sg58
g80
sa(dp408
(F0.0
F0.0
F0.0
F1.0
tp409
g52
s(F1.0
F0.0
F0.0
F0.0
tp410
g58
s(F0.0
F0.0
F1.0
F0.0
tp411
g54
s(F0.0
F1.0
F0.0
F0.0
tp412
g56
saa(lp413
(dp414
g61
g92
sa(dp415
(F1.0
tp416
g61
saa(lp417
(dp418
g64
g262
sg66
g263
sa(dp419
(I0
I1
tp420
g66
s(I1
I0
tp421
g64
saa(lp422
(dp423
I10
g286
sI-1
g285
sI-10
g287
sa(dp424
(F1.0
F0.0
F0.0
tp425
I-10
s(F0.0
F1.0
F0.0
tp426
I-1
s(F0.0
F0.0
F1.0
tp427
I10
saaNa(lp428
(dp429
g290
g296
sg100
g295
sg155
g292
sg126
g293
sg141
g294
sa(dp430
(F0.0
F0.0
F0.0
F1.0
tp431
g155
s(I0
I0
I0
I0
tp432
g290
s(F1.0
F0.0
F0.0
F0.0
tp433
g141
s(F0.0
F1.0
F0.0
F0.0
tp434
g126
s(F0.0
F0.0
F1.0
F0.0
tp435
g100
saasS'objMap'
p436
(dp437
g303
(lp438
sg305
(lp439
I15
asg307
(lp440
I19
asg309
(lp441
I5
asg311
(lp442
I16
asg313
(lp443
sg315
(lp444
I4
asg317
(lp445
sg319
(lp446
I11
asg321
(lp447
I17
asg323
(lp448
I8
asg325
(lp449
I12
asg327
(lp450
I0
asg329
(lp451
I1
asg331
(lp452
I9
asg333
(lp453
I13
asg335
(lp454
I10
asg337
(lp455
I18
asg347
(lp456
I7
asg341
(lp457
I14
asg343
(lp458
I6
asg345
(lp459
I3
asg339
(lp460
I2
assS'objects'
p461
(dp462
I0
(iblox
Object
p463
(dp464
S'y_size'
p465
I1
sS'x_pos'
p466
I0
sS'colour'
p467
g6
sS'shape'
p468
g7
sS'x_size'
p469
I1
sS'y_pos'
p470
I4
sS'nothing'
p471
g8
sg104
I0
sbsI1
(iblox
Object
p472
(dp473
g465
I1
sg466
I1
sg467
g6
sg468
g7
sg469
I1
sg470
I4
sg471
g8
sg104
I1
sbsI2
(iblox
Object
p474
(dp475
g465
I1
sg466
I2
sg467
g6
sg468
g7
sg469
I1
sg470
I4
sg471
g8
sg104
I2
sbsI3
(iblox
Object
p476
(dp477
g465
I1
sg466
I3
sg467
g6
sg468
g7
sg469
I1
sg470
I4
sg471
g8
sg104
I3
sbsI4
(iblox
Object
p478
(dp479
g465
I1
sg466
I4
sg467
g6
sg468
g7
sg469
I1
sg470
I4
sg471
g8
sg104
I4
sbsI5
(iblox
Object
p480
(dp481
g465
I1
sg466
I0
sg467
g6
sg468
g7
sg469
I1
sg470
I3
sg471
g8
sg104
I5
sbsI6
(iblox
Object
p482
(dp483
g465
I1
sg466
I4
sg467
g6
sg468
g7
sg469
I1
sg470
I3
sg471
g8
sg104
I6
sbsI7
(iblox
Object
p484
(dp485
g465
I1
sg466
I0
sg467
g6
sg468
g7
sg469
I1
sg470
I2
sg471
g8
sg104
I7
sbsI8
(iblox
Object
p486
(dp487
g465
I1
sg466
I3
sg467
g6
sg468
g7
sg469
I1
sg470
I2
sg471
g8
sg104
I8
sbsI9
(iblox
Object
p488
(dp489
g465
I1
sg466
I4
sg467
g6
sg468
g7
sg469
I1
sg470
I2
sg471
g8
sg104
I9
sbsI10
(iblox
Object
p490
(dp491
g465
I1
sg466
I0
sg467
g6
sg468
g7
sg469
I1
sg470
I1
sg471
g8
sg104
I10
sbsI11
(iblox
Object
p492
(dp493
g465
I1
sg466
I4
sg467
g6
sg468
g7
sg469
I1
sg470
I1
sg471
g8
sg104
I11
sbsI12
(iblox
Object
p494
(dp495
g465
I1
sg466
I0
sg467
g6
sg468
g7
sg469
I1
sg470
I0
sg471
g8
sg104
I12
sbsI13
(iblox
Object
p496
(dp497
g465
I1
sg466
I1
sg467
g6
sg468
g7
sg469
I1
sg470
I0
sg471
g8
sg104
I13
sbsI14
(iblox
Object
p498
(dp499
g465
I1
sg466
I2
sg467
g6
sg468
g7
sg469
I1
sg470
I0
sg471
g8
sg104
I14
sbsI15
(iblox
Object
p500
(dp501
g465
I1
sg466
I3
sg467
g6
sg468
g7
sg469
I1
sg470
I0
sg471
g8
sg104
I15
sbsI16
(iblox
Object
p502
(dp503
g465
I1
sg466
I4
sg467
g6
sg468
g7
sg469
I1
sg470
I0
sg471
g8
sg104
I16
sbsI17
(iblox
Object
p504
(dp505
g465
I1
sg466
I1
sg467
g26
sg468
g7
sg469
I1
sg470
I1
sg471
g8
sg104
I17
sbsI18
(iblox
Object
p506
(dp507
g465
I1
sg466
I3
sg467
g28
sg468
g7
sg469
I1
sg470
I1
sg471
g8
sg104
I18
sbsI19
(iblox
Object
p508
(dp509
g465
I1
sg466
I2
sg467
g30
sg468
g7
sg469
I1
sg470
I1
sg471
g8
sg104
I19
sbssS'action'
p510
S'l'
p511
sS'reward'
p512
I-10
sb.