(iblox
Model
p0
(dp1
S'deterministic'
p2
I00
sS'curr'
p3
(dp4
I0
(lp5
I0
aI4
aI1
aI1
aS'wall'
p6
aS'square'
p7
aS'no'
p8
asI1
(lp9
I1
aI4
aI1
aI1
ag6
ag7
ag8
asI2
(lp10
I2
aI4
aI1
aI1
ag6
ag7
ag8
asI3
(lp11
I3
aI4
aI1
aI1
ag6
ag7
ag8
asI4
(lp12
I4
aI4
aI1
aI1
ag6
ag7
ag8
asI5
(lp13
I0
aI3
aI1
aI1
ag6
ag7
ag8
asI6
(lp14
I4
aI3
aI1
aI1
ag6
ag7
ag8
asI7
(lp15
I0
aI2
aI1
aI1
ag6
ag7
ag8
asI8
(lp16
I3
aI2
aI1
aI1
ag6
ag7
ag8
asI9
(lp17
I4
aI2
aI1
aI1
ag6
ag7
ag8
asI10
(lp18
I0
aI1
aI1
aI1
ag6
ag7
ag8
asI11
(lp19
I4
aI1
aI1
aI1
ag6
ag7
ag8
asI12
(lp20
I0
aI0
aI1
aI1
ag6
ag7
ag8
asI13
(lp21
I1
aI0
aI1
aI1
ag6
ag7
ag8
asI14
(lp22
I2
aI0
aI1
aI1
ag6
ag7
ag8
asI15
(lp23
I3
aI0
aI1
aI1
ag6
ag7
ag8
asI16
(lp24
I4
aI0
aI1
aI1
ag6
ag7
ag8
asI17
(lp25
I1
aI1
aI1
aI1
aS'hole'
p26
ag7
ag8
asI18
(lp27
I3
aI1
aI1
aI1
aS'goal'
p28
ag7
ag8
asI19
(lp29
I1
aI3
aI1
aI1
aS'agent'
p30
ag7
ag8
assS'num_schemas'
p31
I0
sS'evidence'
p32
(lp33
(dp34
S'right'
p35
(lp36
sS'centre'
p37
(lp38
sS'left'
p39
(lp40
sa(dp41
S'below'
p42
(lp43
sS'above'
p44
(lp45
sg37
(lp46
sa(dp47
I1
(lp48
sa(dp49
I1
(lp50
sa(dp51
g6
(lp52
sg26
(lp53
sg28
(lp54
sg30
(lp55
sa(dp56
g7
(lp57
sa(dp58
S'yes'
p59
(lp60
sg8
(lp61
sa(dp62
asS'xMax'
p63
I4
sS'obsColours'
p64
(lp65
(lp66
g6
ag26
ag28
ag30
aa(lp67
(lp68
F0.0
aF0.0
aF0.0
aF1.0
aa(lp69
F0.0
aF0.0
aF1.0
aF0.0
aa(lp70
F0.0
aF1.0
aF0.0
aF0.0
aa(lp71
F1.0
aF0.0
aF0.0
aF0.0
aaasS'obsYpos'
p72
(lp73
(lp74
g42
ag37
ag44
aa(lp75
(lp76
I1
aI0
aI0
aa(lp77
I0
aI1
aI0
aa(lp78
I0
aI0
aI1
aaasS'obsShapes'
p79
(lp80
(lp81
g7
aa(lp82
(lp83
F1.0
aaasS'schemas'
p84
(lp85
(dp86
g35
(lp87
sg37
(lp88
sg39
(lp89
sa(dp90
g42
(lp91
sg44
(lp92
sg37
(lp93
sa(dp94
I1
(lp95
sa(dp96
I1
(lp97
sa(dp98
g6
(lp99
sg26
(lp100
sg28
(lp101
sg30
(lp102
sa(dp103
g7
(lp104
sa(dp105
g59
(lp106
sg8
(lp107
sa(dp108
asS'obsTrans'
p109
c__builtin__
set
p110
((lp111
tp112
Rp113
sS'obsChanges'
p114
g110
((lp115
tp116
Rp117
sS'data'
p118
(lp119
(dp120
g35
(lp121
sg37
(lp122
sg39
(lp123
sa(dp124
g42
(lp125
sg44
(lp126
sg37
(lp127
sa(dp128
I1
(lp129
sa(dp130
I1
(lp131
sa(dp132
g6
(lp133
sg26
(lp134
sg28
(lp135
sg30
(lp136
sa(dp137
g7
(lp138
sa(dp139
g59
(lp140
sg8
(lp141
sa(dp142
asS'num_objects'
p143
I20
sS'obsNothing'
p144
(lp145
(lp146
g59
ag8
aa(lp147
(lp148
I1
aI0
aa(lp149
I0
aI1
aaasS'obsXsizes'
p150
(lp151
(lp152
I1
aa(lp153
(lp154
F1.0
aaasS'obsXpos'
p155
(lp156
(lp157
g39
ag37
ag35
aa(lp158
(lp159
I1
aI0
aI0
aa(lp160
I0
aI1
aI0
aa(lp161
I0
aI0
aI1
aaasS'observations'
p162
(lp163
g156
ag73
ag151
a(lp164
(lp165
I1
aa(lp166
(lp167
F1.0
aaaag65
ag80
ag145
a(lp168
(lp169
a(lp170
aaNa(lp171
(lp172
S'u'
p173
aS'l'
p174
aS'd'
p175
aS'r'
p176
aS'none'
p177
aa(lp178
(lp179
F0.0
aF0.0
aF0.0
aF1.0
aa(lp180
F0.0
aF1.0
aF0.0
aF0.0
aa(lp181
F1.0
aF0.0
aF0.0
aF0.0
aa(lp182
F0.0
aF0.0
aF1.0
aF0.0
aa(lp183
I0
aI0
aI0
aI0
aaaasS'pi'
p184
(dp185
sS'yMax'
p186
I4
sS'RMAX'
p187
I100
sS'oldMap'
p188
(dp189
sS'Q'
p190
(dp191
sS'R'
p192
(dp193
sS'obsRewards'
p194
g168
sS'obsState'
p195
g110
((lp196
tp197
Rp198
sS'schema_updates'
p199
(dp200
sS'obsActions'
p201
g171
sS'obsYsizes'
p202
g164
sS'prev'
p203
NsS'name'
p204
S'jjj'
p205
sS'dictionaries'
p206
(lp207
(lp208
(dp209
g35
g161
sg37
g160
sg39
g159
sa(dp210
(I1
I0
I0
tp211
g39
s(I0
I1
I0
tp212
g37
s(I0
I0
I1
tp213
g35
saa(lp214
(dp215
g42
g76
sg44
g78
sg37
g77
sa(dp216
(I1
I0
I0
tp217
g42
s(I0
I1
I0
tp218
g37
s(I0
I0
I1
tp219
g44
saa(lp220
(dp221
I1
g154
sa(dp222
(F1.0
tp223
I1
saa(lp224
(dp225
I1
g167
sa(dp226
(F1.0
tp227
I1
saa(lp228
(dp229
g6
g68
sg26
g69
sg28
g70
sg30
g71
sa(dp230
(F0.0
F0.0
F0.0
F1.0
tp231
g6
s(F1.0
F0.0
F0.0
F0.0
tp232
g30
s(F0.0
F1.0
F0.0
F0.0
tp233
g28
s(F0.0
F0.0
F1.0
F0.0
tp234
g26
saa(lp235
(dp236
g7
g83
sa(dp237
(F1.0
tp238
g7
saa(lp239
(dp240
g59
g148
sg8
g149
sa(dp241
(I0
I1
tp242
g8
s(I1
I0
tp243
g59
saa(lp244
(dp245
a(dp246
aaNa(lp247
(dp248
g177
g183
sg176
g182
sg173
g179
sg174
g180
sg175
g181
sa(dp249
(F0.0
F0.0
F0.0
F1.0
tp250
g173
s(I0
I0
I0
I0
tp251
g177
s(F1.0
F0.0
F0.0
F0.0
tp252
g175
s(F0.0
F0.0
F1.0
F0.0
tp253
g176
s(F0.0
F1.0
F0.0
F0.0
tp254
g174
saasS'objMap'
p255
(dp256
(I0
I1
tp257
(lp258
I10
as(I3
I2
tp259
(lp260
I8
as(I0
I0
tp261
(lp262
I12
as(I3
I0
tp263
(lp264
I15
as(I4
I1
tp265
(lp266
I11
as(I3
I1
tp267
(lp268
I18
as(I4
I4
tp269
(lp270
I4
as(I1
I4
tp271
(lp272
I1
as(I0
I2
tp273
(lp274
I7
as(I2
I0
tp275
(lp276
I14
as(I1
I3
tp277
(lp278
I19
as(I2
I4
tp279
(lp280
I2
as(I4
I3
tp281
(lp282
I6
as(I0
I4
tp283
(lp284
I0
as(I1
I0
tp285
(lp286
I13
as(I4
I2
tp287
(lp288
I9
as(I0
I3
tp289
(lp290
I5
as(I3
I4
tp291
(lp292
I3
as(I1
I1
tp293
(lp294
I17
as(I4
I0
tp295
(lp296
I16
assS'transition_data'
p297
(dp298
sS'objects'
p299
(dp300
I0
(iblox
Object
p301
(dp302
S'y_size'
p303
I1
sg204
I0
sS'x_pos'
p304
I0
sS'colour'
p305
g6
sS'x_size'
p306
I1
sS'shape'
p307
g7
sS'y_pos'
p308
I4
sS'nothing'
p309
g8
sbsI1
(iblox
Object
p310
(dp311
g303
I1
sg204
I1
sg304
I1
sg305
g6
sg306
I1
sg307
g7
sg308
I4
sg309
g8
sbsI2
(iblox
Object
p312
(dp313
g303
I1
sg204
I2
sg304
I2
sg305
g6
sg306
I1
sg307
g7
sg308
I4
sg309
g8
sbsI3
(iblox
Object
p314
(dp315
g303
I1
sg204
I3
sg304
I3
sg305
g6
sg306
I1
sg307
g7
sg308
I4
sg309
g8
sbsI4
(iblox
Object
p316
(dp317
g303
I1
sg204
I4
sg304
I4
sg305
g6
sg306
I1
sg307
g7
sg308
I4
sg309
g8
sbsI5
(iblox
Object
p318
(dp319
g303
I1
sg204
I5
sg304
I0
sg305
g6
sg306
I1
sg307
g7
sg308
I3
sg309
g8
sbsI6
(iblox
Object
p320
(dp321
g303
I1
sg204
I6
sg304
I4
sg305
g6
sg306
I1
sg307
g7
sg308
I3
sg309
g8
sbsI7
(iblox
Object
p322
(dp323
g303
I1
sg204
I7
sg304
I0
sg305
g6
sg306
I1
sg307
g7
sg308
I2
sg309
g8
sbsI8
(iblox
Object
p324
(dp325
g303
I1
sg204
I8
sg304
I3
sg305
g6
sg306
I1
sg307
g7
sg308
I2
sg309
g8
sbsI9
(iblox
Object
p326
(dp327
g303
I1
sg204
I9
sg304
I4
sg305
g6
sg306
I1
sg307
g7
sg308
I2
sg309
g8
sbsI10
(iblox
Object
p328
(dp329
g303
I1
sg204
I10
sg304
I0
sg305
g6
sg306
I1
sg307
g7
sg308
I1
sg309
g8
sbsI11
(iblox
Object
p330
(dp331
g303
I1
sg204
I11
sg304
I4
sg305
g6
sg306
I1
sg307
g7
sg308
I1
sg309
g8
sbsI12
(iblox
Object
p332
(dp333
g303
I1
sg204
I12
sg304
I0
sg305
g6
sg306
I1
sg307
g7
sg308
I0
sg309
g8
sbsI13
(iblox
Object
p334
(dp335
g303
I1
sg204
I13
sg304
I1
sg305
g6
sg306
I1
sg307
g7
sg308
I0
sg309
g8
sbsI14
(iblox
Object
p336
(dp337
g303
I1
sg204
I14
sg304
I2
sg305
g6
sg306
I1
sg307
g7
sg308
I0
sg309
g8
sbsI15
(iblox
Object
p338
(dp339
g303
I1
sg204
I15
sg304
I3
sg305
g6
sg306
I1
sg307
g7
sg308
I0
sg309
g8
sbsI16
(iblox
Object
p340
(dp341
g303
I1
sg204
I16
sg304
I4
sg305
g6
sg306
I1
sg307
g7
sg308
I0
sg309
g8
sbsI17
(iblox
Object
p342
(dp343
g303
I1
sg204
I17
sg304
I1
sg305
g26
sg306
I1
sg307
g7
sg308
I1
sg309
g8
sbsI18
(iblox
Object
p344
(dp345
g303
I1
sg204
I18
sg304
I3
sg305
g28
sg306
I1
sg307
g7
sg308
I1
sg309
g8
sbsI19
(iblox
Object
p346
(dp347
g303
I1
sg204
I19
sg304
I1
sg305
g30
sg306
I1
sg307
g7
sg308
I3
sg309
g8
sbssS'action'
p348
NsS'reward'
p349
Nsb.